	.cpu cortex-m4
	.eabi_attribute 27, 1
	.eabi_attribute 28, 1
	.eabi_attribute 20, 1
	.eabi_attribute 21, 1
	.eabi_attribute 23, 3
	.eabi_attribute 24, 1
	.eabi_attribute 25, 1
	.eabi_attribute 26, 1
	.eabi_attribute 30, 6
	.eabi_attribute 34, 1
	.eabi_attribute 18, 4
	.file	"simple_hal.c"
	.text
.Ltext0:
	.section	.text.sd_mbr_command,"ax",%progbits
	.align	1
	.syntax unified
	.thumb
	.thumb_func
	.fpu fpv4-sp-d16
	.type	sd_mbr_command, %function
sd_mbr_command:
.LFB133:
	.file 1 "../../../nRF5_SDK_17.0.2_d674dde/components/softdevice/s140/headers/nrf52/nrf_mbr.h"
	.loc 1 257 1
	@ Naked Function: prologue and epilogue provided by programmer.
	@ args = 0, pretend = 0, frame = 0
	@ frame_needed = 0, uses_anonymous_args = 0
	.loc 1 257 1
	.syntax unified
@ 257 "../../../nRF5_SDK_17.0.2_d674dde/components/softdevice/s140/headers/nrf52/nrf_mbr.h" 1
	svc #24
bx r14
@ 0 "" 2
	.thumb
	.syntax unified
	nop
	mov	r0, r3
.LFE133:
	.size	sd_mbr_command, .-sd_mbr_command
	.section	.text.sd_mutex_new,"ax",%progbits
	.align	1
	.syntax unified
	.thumb
	.thumb_func
	.fpu fpv4-sp-d16
	.type	sd_mutex_new, %function
sd_mutex_new:
.LFB164:
	.file 2 "../../../nRF5_SDK_17.0.2_d674dde/components/softdevice/s140/headers/nrf_soc.h"
	.loc 2 452 1
	@ Naked Function: prologue and epilogue provided by programmer.
	@ args = 0, pretend = 0, frame = 0
	@ frame_needed = 0, uses_anonymous_args = 0
	.loc 2 452 1
	.syntax unified
@ 452 "../../../nRF5_SDK_17.0.2_d674dde/components/softdevice/s140/headers/nrf_soc.h" 1
	svc #44
bx r14
@ 0 "" 2
	.thumb
	.syntax unified
	nop
	mov	r0, r3
.LFE164:
	.size	sd_mutex_new, .-sd_mutex_new
	.section	.text.sd_mutex_acquire,"ax",%progbits
	.align	1
	.syntax unified
	.thumb
	.thumb_func
	.fpu fpv4-sp-d16
	.type	sd_mutex_acquire, %function
sd_mutex_acquire:
.LFB165:
	.loc 2 461 1
	@ Naked Function: prologue and epilogue provided by programmer.
	@ args = 0, pretend = 0, frame = 0
	@ frame_needed = 0, uses_anonymous_args = 0
	.loc 2 461 1
	.syntax unified
@ 461 "../../../nRF5_SDK_17.0.2_d674dde/components/softdevice/s140/headers/nrf_soc.h" 1
	svc #45
bx r14
@ 0 "" 2
	.thumb
	.syntax unified
	nop
	mov	r0, r3
.LFE165:
	.size	sd_mutex_acquire, .-sd_mutex_acquire
	.section	.text.sd_mutex_release,"ax",%progbits
	.align	1
	.syntax unified
	.thumb
	.thumb_func
	.fpu fpv4-sp-d16
	.type	sd_mutex_release, %function
sd_mutex_release:
.LFB166:
	.loc 2 469 1
	@ Naked Function: prologue and epilogue provided by programmer.
	@ args = 0, pretend = 0, frame = 0
	@ frame_needed = 0, uses_anonymous_args = 0
	.loc 2 469 1
	.syntax unified
@ 469 "../../../nRF5_SDK_17.0.2_d674dde/components/softdevice/s140/headers/nrf_soc.h" 1
	svc #46
bx r14
@ 0 "" 2
	.thumb
	.syntax unified
	nop
	mov	r0, r3
.LFE166:
	.size	sd_mutex_release, .-sd_mutex_release
	.section	.text.sd_rand_application_pool_capacity_get,"ax",%progbits
	.align	1
	.syntax unified
	.thumb
	.thumb_func
	.fpu fpv4-sp-d16
	.type	sd_rand_application_pool_capacity_get, %function
sd_rand_application_pool_capacity_get:
.LFB167:
	.loc 2 477 1
	@ Naked Function: prologue and epilogue provided by programmer.
	@ args = 0, pretend = 0, frame = 0
	@ frame_needed = 0, uses_anonymous_args = 0
	.loc 2 477 1
	.syntax unified
@ 477 "../../../nRF5_SDK_17.0.2_d674dde/components/softdevice/s140/headers/nrf_soc.h" 1
	svc #47
bx r14
@ 0 "" 2
	.thumb
	.syntax unified
	nop
	mov	r0, r3
.LFE167:
	.size	sd_rand_application_pool_capacity_get, .-sd_rand_application_pool_capacity_get
	.section	.text.sd_rand_application_bytes_available_get,"ax",%progbits
	.align	1
	.syntax unified
	.thumb
	.thumb_func
	.fpu fpv4-sp-d16
	.type	sd_rand_application_bytes_available_get, %function
sd_rand_application_bytes_available_get:
.LFB168:
	.loc 2 485 1
	@ Naked Function: prologue and epilogue provided by programmer.
	@ args = 0, pretend = 0, frame = 0
	@ frame_needed = 0, uses_anonymous_args = 0
	.loc 2 485 1
	.syntax unified
@ 485 "../../../nRF5_SDK_17.0.2_d674dde/components/softdevice/s140/headers/nrf_soc.h" 1
	svc #48
bx r14
@ 0 "" 2
	.thumb
	.syntax unified
	nop
	mov	r0, r3
.LFE168:
	.size	sd_rand_application_bytes_available_get, .-sd_rand_application_bytes_available_get
	.section	.text.sd_rand_application_vector_get,"ax",%progbits
	.align	1
	.syntax unified
	.thumb
	.thumb_func
	.fpu fpv4-sp-d16
	.type	sd_rand_application_vector_get, %function
sd_rand_application_vector_get:
.LFB169:
	.loc 2 495 1
	@ Naked Function: prologue and epilogue provided by programmer.
	@ args = 0, pretend = 0, frame = 0
	@ frame_needed = 0, uses_anonymous_args = 0
	.loc 2 495 1
	.syntax unified
@ 495 "../../../nRF5_SDK_17.0.2_d674dde/components/softdevice/s140/headers/nrf_soc.h" 1
	svc #49
bx r14
@ 0 "" 2
	.thumb
	.syntax unified
	nop
	mov	r0, r3
.LFE169:
	.size	sd_rand_application_vector_get, .-sd_rand_application_vector_get
	.section	.text.sd_power_reset_reason_get,"ax",%progbits
	.align	1
	.syntax unified
	.thumb
	.thumb_func
	.fpu fpv4-sp-d16
	.type	sd_power_reset_reason_get, %function
sd_power_reset_reason_get:
.LFB170:
	.loc 2 503 1
	@ Naked Function: prologue and epilogue provided by programmer.
	@ args = 0, pretend = 0, frame = 0
	@ frame_needed = 0, uses_anonymous_args = 0
	.loc 2 503 1
	.syntax unified
@ 503 "../../../nRF5_SDK_17.0.2_d674dde/components/softdevice/s140/headers/nrf_soc.h" 1
	svc #52
bx r14
@ 0 "" 2
	.thumb
	.syntax unified
	nop
	mov	r0, r3
.LFE170:
	.size	sd_power_reset_reason_get, .-sd_power_reset_reason_get
	.section	.text.sd_power_reset_reason_clr,"ax",%progbits
	.align	1
	.syntax unified
	.thumb
	.thumb_func
	.fpu fpv4-sp-d16
	.type	sd_power_reset_reason_clr, %function
sd_power_reset_reason_clr:
.LFB171:
	.loc 2 511 1
	@ Naked Function: prologue and epilogue provided by programmer.
	@ args = 0, pretend = 0, frame = 0
	@ frame_needed = 0, uses_anonymous_args = 0
	.loc 2 511 1
	.syntax unified
@ 511 "../../../nRF5_SDK_17.0.2_d674dde/components/softdevice/s140/headers/nrf_soc.h" 1
	svc #53
bx r14
@ 0 "" 2
	.thumb
	.syntax unified
	nop
	mov	r0, r3
.LFE171:
	.size	sd_power_reset_reason_clr, .-sd_power_reset_reason_clr
	.section	.text.sd_power_mode_set,"ax",%progbits
	.align	1
	.syntax unified
	.thumb
	.thumb_func
	.fpu fpv4-sp-d16
	.type	sd_power_mode_set, %function
sd_power_mode_set:
.LFB172:
	.loc 2 520 1
	@ Naked Function: prologue and epilogue provided by programmer.
	@ args = 0, pretend = 0, frame = 0
	@ frame_needed = 0, uses_anonymous_args = 0
	.loc 2 520 1
	.syntax unified
@ 520 "../../../nRF5_SDK_17.0.2_d674dde/components/softdevice/s140/headers/nrf_soc.h" 1
	svc #50
bx r14
@ 0 "" 2
	.thumb
	.syntax unified
	nop
	mov	r0, r3
.LFE172:
	.size	sd_power_mode_set, .-sd_power_mode_set
	.section	.text.sd_power_system_off,"ax",%progbits
	.align	1
	.syntax unified
	.thumb
	.thumb_func
	.fpu fpv4-sp-d16
	.type	sd_power_system_off, %function
sd_power_system_off:
.LFB173:
	.loc 2 526 1
	@ Naked Function: prologue and epilogue provided by programmer.
	@ args = 0, pretend = 0, frame = 0
	@ frame_needed = 0, uses_anonymous_args = 0
	.loc 2 526 1
	.syntax unified
@ 526 "../../../nRF5_SDK_17.0.2_d674dde/components/softdevice/s140/headers/nrf_soc.h" 1
	svc #51
bx r14
@ 0 "" 2
	.thumb
	.syntax unified
	nop
	mov	r0, r3
.LFE173:
	.size	sd_power_system_off, .-sd_power_system_off
	.section	.text.sd_power_pof_enable,"ax",%progbits
	.align	1
	.syntax unified
	.thumb
	.thumb_func
	.fpu fpv4-sp-d16
	.type	sd_power_pof_enable, %function
sd_power_pof_enable:
.LFB174:
	.loc 2 537 1
	@ Naked Function: prologue and epilogue provided by programmer.
	@ args = 0, pretend = 0, frame = 0
	@ frame_needed = 0, uses_anonymous_args = 0
	.loc 2 537 1
	.syntax unified
@ 537 "../../../nRF5_SDK_17.0.2_d674dde/components/softdevice/s140/headers/nrf_soc.h" 1
	svc #54
bx r14
@ 0 "" 2
	.thumb
	.syntax unified
	nop
	mov	r0, r3
.LFE174:
	.size	sd_power_pof_enable, .-sd_power_pof_enable
	.section	.text.sd_power_usbpwrrdy_enable,"ax",%progbits
	.align	1
	.syntax unified
	.thumb
	.thumb_func
	.fpu fpv4-sp-d16
	.type	sd_power_usbpwrrdy_enable, %function
sd_power_usbpwrrdy_enable:
.LFB175:
	.loc 2 550 1
	@ Naked Function: prologue and epilogue provided by programmer.
	@ args = 0, pretend = 0, frame = 0
	@ frame_needed = 0, uses_anonymous_args = 0
	.loc 2 550 1
	.syntax unified
@ 550 "../../../nRF5_SDK_17.0.2_d674dde/components/softdevice/s140/headers/nrf_soc.h" 1
	svc #77
bx r14
@ 0 "" 2
	.thumb
	.syntax unified
	nop
	mov	r0, r3
.LFE175:
	.size	sd_power_usbpwrrdy_enable, .-sd_power_usbpwrrdy_enable
	.section	.text.sd_power_usbdetected_enable,"ax",%progbits
	.align	1
	.syntax unified
	.thumb
	.thumb_func
	.fpu fpv4-sp-d16
	.type	sd_power_usbdetected_enable, %function
sd_power_usbdetected_enable:
.LFB176:
	.loc 2 563 1
	@ Naked Function: prologue and epilogue provided by programmer.
	@ args = 0, pretend = 0, frame = 0
	@ frame_needed = 0, uses_anonymous_args = 0
	.loc 2 563 1
	.syntax unified
@ 563 "../../../nRF5_SDK_17.0.2_d674dde/components/softdevice/s140/headers/nrf_soc.h" 1
	svc #78
bx r14
@ 0 "" 2
	.thumb
	.syntax unified
	nop
	mov	r0, r3
.LFE176:
	.size	sd_power_usbdetected_enable, .-sd_power_usbdetected_enable
	.section	.text.sd_power_usbremoved_enable,"ax",%progbits
	.align	1
	.syntax unified
	.thumb
	.thumb_func
	.fpu fpv4-sp-d16
	.type	sd_power_usbremoved_enable, %function
sd_power_usbremoved_enable:
.LFB177:
	.loc 2 576 1
	@ Naked Function: prologue and epilogue provided by programmer.
	@ args = 0, pretend = 0, frame = 0
	@ frame_needed = 0, uses_anonymous_args = 0
	.loc 2 576 1
	.syntax unified
@ 576 "../../../nRF5_SDK_17.0.2_d674dde/components/softdevice/s140/headers/nrf_soc.h" 1
	svc #79
bx r14
@ 0 "" 2
	.thumb
	.syntax unified
	nop
	mov	r0, r3
.LFE177:
	.size	sd_power_usbremoved_enable, .-sd_power_usbremoved_enable
	.section	.text.sd_power_usbregstatus_get,"ax",%progbits
	.align	1
	.syntax unified
	.thumb
	.thumb_func
	.fpu fpv4-sp-d16
	.type	sd_power_usbregstatus_get, %function
sd_power_usbregstatus_get:
.LFB178:
	.loc 2 586 1
	@ Naked Function: prologue and epilogue provided by programmer.
	@ args = 0, pretend = 0, frame = 0
	@ frame_needed = 0, uses_anonymous_args = 0
	.loc 2 586 1
	.syntax unified
@ 586 "../../../nRF5_SDK_17.0.2_d674dde/components/softdevice/s140/headers/nrf_soc.h" 1
	svc #80
bx r14
@ 0 "" 2
	.thumb
	.syntax unified
	nop
	mov	r0, r3
.LFE178:
	.size	sd_power_usbregstatus_get, .-sd_power_usbregstatus_get
	.section	.text.sd_power_pof_threshold_set,"ax",%progbits
	.align	1
	.syntax unified
	.thumb
	.thumb_func
	.fpu fpv4-sp-d16
	.type	sd_power_pof_threshold_set, %function
sd_power_pof_threshold_set:
.LFB179:
	.loc 2 599 1
	@ Naked Function: prologue and epilogue provided by programmer.
	@ args = 0, pretend = 0, frame = 0
	@ frame_needed = 0, uses_anonymous_args = 0
	.loc 2 599 1
	.syntax unified
@ 599 "../../../nRF5_SDK_17.0.2_d674dde/components/softdevice/s140/headers/nrf_soc.h" 1
	svc #55
bx r14
@ 0 "" 2
	.thumb
	.syntax unified
	nop
	mov	r0, r3
.LFE179:
	.size	sd_power_pof_threshold_set, .-sd_power_pof_threshold_set
	.section	.text.sd_power_pof_thresholdvddh_set,"ax",%progbits
	.align	1
	.syntax unified
	.thumb
	.thumb_func
	.fpu fpv4-sp-d16
	.type	sd_power_pof_thresholdvddh_set, %function
sd_power_pof_thresholdvddh_set:
.LFB180:
	.loc 2 612 1
	@ Naked Function: prologue and epilogue provided by programmer.
	@ args = 0, pretend = 0, frame = 0
	@ frame_needed = 0, uses_anonymous_args = 0
	.loc 2 612 1
	.syntax unified
@ 612 "../../../nRF5_SDK_17.0.2_d674dde/components/softdevice/s140/headers/nrf_soc.h" 1
	svc #56
bx r14
@ 0 "" 2
	.thumb
	.syntax unified
	nop
	mov	r0, r3
.LFE180:
	.size	sd_power_pof_thresholdvddh_set, .-sd_power_pof_thresholdvddh_set
	.section	.text.sd_power_ram_power_set,"ax",%progbits
	.align	1
	.syntax unified
	.thumb
	.thumb_func
	.fpu fpv4-sp-d16
	.type	sd_power_ram_power_set, %function
sd_power_ram_power_set:
.LFB181:
	.loc 2 621 1
	@ Naked Function: prologue and epilogue provided by programmer.
	@ args = 0, pretend = 0, frame = 0
	@ frame_needed = 0, uses_anonymous_args = 0
	.loc 2 621 1
	.syntax unified
@ 621 "../../../nRF5_SDK_17.0.2_d674dde/components/softdevice/s140/headers/nrf_soc.h" 1
	svc #57
bx r14
@ 0 "" 2
	.thumb
	.syntax unified
	nop
	mov	r0, r3
.LFE181:
	.size	sd_power_ram_power_set, .-sd_power_ram_power_set
	.section	.text.sd_power_ram_power_clr,"ax",%progbits
	.align	1
	.syntax unified
	.thumb
	.thumb_func
	.fpu fpv4-sp-d16
	.type	sd_power_ram_power_clr, %function
sd_power_ram_power_clr:
.LFB182:
	.loc 2 630 1
	@ Naked Function: prologue and epilogue provided by programmer.
	@ args = 0, pretend = 0, frame = 0
	@ frame_needed = 0, uses_anonymous_args = 0
	.loc 2 630 1
	.syntax unified
@ 630 "../../../nRF5_SDK_17.0.2_d674dde/components/softdevice/s140/headers/nrf_soc.h" 1
	svc #58
bx r14
@ 0 "" 2
	.thumb
	.syntax unified
	nop
	mov	r0, r3
.LFE182:
	.size	sd_power_ram_power_clr, .-sd_power_ram_power_clr
	.section	.text.sd_power_ram_power_get,"ax",%progbits
	.align	1
	.syntax unified
	.thumb
	.thumb_func
	.fpu fpv4-sp-d16
	.type	sd_power_ram_power_get, %function
sd_power_ram_power_get:
.LFB183:
	.loc 2 639 1
	@ Naked Function: prologue and epilogue provided by programmer.
	@ args = 0, pretend = 0, frame = 0
	@ frame_needed = 0, uses_anonymous_args = 0
	.loc 2 639 1
	.syntax unified
@ 639 "../../../nRF5_SDK_17.0.2_d674dde/components/softdevice/s140/headers/nrf_soc.h" 1
	svc #59
bx r14
@ 0 "" 2
	.thumb
	.syntax unified
	nop
	mov	r0, r3
.LFE183:
	.size	sd_power_ram_power_get, .-sd_power_ram_power_get
	.section	.text.sd_power_gpregret_set,"ax",%progbits
	.align	1
	.syntax unified
	.thumb
	.thumb_func
	.fpu fpv4-sp-d16
	.type	sd_power_gpregret_set, %function
sd_power_gpregret_set:
.LFB184:
	.loc 2 648 1
	@ Naked Function: prologue and epilogue provided by programmer.
	@ args = 0, pretend = 0, frame = 0
	@ frame_needed = 0, uses_anonymous_args = 0
	.loc 2 648 1
	.syntax unified
@ 648 "../../../nRF5_SDK_17.0.2_d674dde/components/softdevice/s140/headers/nrf_soc.h" 1
	svc #60
bx r14
@ 0 "" 2
	.thumb
	.syntax unified
	nop
	mov	r0, r3
.LFE184:
	.size	sd_power_gpregret_set, .-sd_power_gpregret_set
	.section	.text.sd_power_gpregret_clr,"ax",%progbits
	.align	1
	.syntax unified
	.thumb
	.thumb_func
	.fpu fpv4-sp-d16
	.type	sd_power_gpregret_clr, %function
sd_power_gpregret_clr:
.LFB185:
	.loc 2 657 1
	@ Naked Function: prologue and epilogue provided by programmer.
	@ args = 0, pretend = 0, frame = 0
	@ frame_needed = 0, uses_anonymous_args = 0
	.loc 2 657 1
	.syntax unified
@ 657 "../../../nRF5_SDK_17.0.2_d674dde/components/softdevice/s140/headers/nrf_soc.h" 1
	svc #61
bx r14
@ 0 "" 2
	.thumb
	.syntax unified
	nop
	mov	r0, r3
.LFE185:
	.size	sd_power_gpregret_clr, .-sd_power_gpregret_clr
	.section	.text.sd_power_gpregret_get,"ax",%progbits
	.align	1
	.syntax unified
	.thumb
	.thumb_func
	.fpu fpv4-sp-d16
	.type	sd_power_gpregret_get, %function
sd_power_gpregret_get:
.LFB186:
	.loc 2 666 1
	@ Naked Function: prologue and epilogue provided by programmer.
	@ args = 0, pretend = 0, frame = 0
	@ frame_needed = 0, uses_anonymous_args = 0
	.loc 2 666 1
	.syntax unified
@ 666 "../../../nRF5_SDK_17.0.2_d674dde/components/softdevice/s140/headers/nrf_soc.h" 1
	svc #62
bx r14
@ 0 "" 2
	.thumb
	.syntax unified
	nop
	mov	r0, r3
.LFE186:
	.size	sd_power_gpregret_get, .-sd_power_gpregret_get
	.section	.text.sd_power_dcdc_mode_set,"ax",%progbits
	.align	1
	.syntax unified
	.thumb
	.thumb_func
	.fpu fpv4-sp-d16
	.type	sd_power_dcdc_mode_set, %function
sd_power_dcdc_mode_set:
.LFB187:
	.loc 2 675 1
	@ Naked Function: prologue and epilogue provided by programmer.
	@ args = 0, pretend = 0, frame = 0
	@ frame_needed = 0, uses_anonymous_args = 0
	.loc 2 675 1
	.syntax unified
@ 675 "../../../nRF5_SDK_17.0.2_d674dde/components/softdevice/s140/headers/nrf_soc.h" 1
	svc #63
bx r14
@ 0 "" 2
	.thumb
	.syntax unified
	nop
	mov	r0, r3
.LFE187:
	.size	sd_power_dcdc_mode_set, .-sd_power_dcdc_mode_set
	.section	.text.sd_power_dcdc0_mode_set,"ax",%progbits
	.align	1
	.syntax unified
	.thumb
	.thumb_func
	.fpu fpv4-sp-d16
	.type	sd_power_dcdc0_mode_set, %function
sd_power_dcdc0_mode_set:
.LFB188:
	.loc 2 686 1
	@ Naked Function: prologue and epilogue provided by programmer.
	@ args = 0, pretend = 0, frame = 0
	@ frame_needed = 0, uses_anonymous_args = 0
	.loc 2 686 1
	.syntax unified
@ 686 "../../../nRF5_SDK_17.0.2_d674dde/components/softdevice/s140/headers/nrf_soc.h" 1
	svc #64
bx r14
@ 0 "" 2
	.thumb
	.syntax unified
	nop
	mov	r0, r3
.LFE188:
	.size	sd_power_dcdc0_mode_set, .-sd_power_dcdc0_mode_set
	.section	.text.sd_clock_hfclk_request,"ax",%progbits
	.align	1
	.syntax unified
	.thumb
	.thumb_func
	.fpu fpv4-sp-d16
	.type	sd_clock_hfclk_request, %function
sd_clock_hfclk_request:
.LFB189:
	.loc 2 698 1
	@ Naked Function: prologue and epilogue provided by programmer.
	@ args = 0, pretend = 0, frame = 0
	@ frame_needed = 0, uses_anonymous_args = 0
	.loc 2 698 1
	.syntax unified
@ 698 "../../../nRF5_SDK_17.0.2_d674dde/components/softdevice/s140/headers/nrf_soc.h" 1
	svc #66
bx r14
@ 0 "" 2
	.thumb
	.syntax unified
	nop
	mov	r0, r3
.LFE189:
	.size	sd_clock_hfclk_request, .-sd_clock_hfclk_request
	.section	.text.sd_clock_hfclk_release,"ax",%progbits
	.align	1
	.syntax unified
	.thumb
	.thumb_func
	.fpu fpv4-sp-d16
	.type	sd_clock_hfclk_release, %function
sd_clock_hfclk_release:
.LFB190:
	.loc 2 709 1
	@ Naked Function: prologue and epilogue provided by programmer.
	@ args = 0, pretend = 0, frame = 0
	@ frame_needed = 0, uses_anonymous_args = 0
	.loc 2 709 1
	.syntax unified
@ 709 "../../../nRF5_SDK_17.0.2_d674dde/components/softdevice/s140/headers/nrf_soc.h" 1
	svc #67
bx r14
@ 0 "" 2
	.thumb
	.syntax unified
	nop
	mov	r0, r3
.LFE190:
	.size	sd_clock_hfclk_release, .-sd_clock_hfclk_release
	.section	.text.sd_clock_hfclk_is_running,"ax",%progbits
	.align	1
	.syntax unified
	.thumb
	.thumb_func
	.fpu fpv4-sp-d16
	.type	sd_clock_hfclk_is_running, %function
sd_clock_hfclk_is_running:
.LFB191:
	.loc 2 720 1
	@ Naked Function: prologue and epilogue provided by programmer.
	@ args = 0, pretend = 0, frame = 0
	@ frame_needed = 0, uses_anonymous_args = 0
	.loc 2 720 1
	.syntax unified
@ 720 "../../../nRF5_SDK_17.0.2_d674dde/components/softdevice/s140/headers/nrf_soc.h" 1
	svc #68
bx r14
@ 0 "" 2
	.thumb
	.syntax unified
	nop
	mov	r0, r3
.LFE191:
	.size	sd_clock_hfclk_is_running, .-sd_clock_hfclk_is_running
	.section	.text.sd_app_evt_wait,"ax",%progbits
	.align	1
	.syntax unified
	.thumb
	.thumb_func
	.fpu fpv4-sp-d16
	.type	sd_app_evt_wait, %function
sd_app_evt_wait:
.LFB192:
	.loc 2 748 1
	@ Naked Function: prologue and epilogue provided by programmer.
	@ args = 0, pretend = 0, frame = 0
	@ frame_needed = 0, uses_anonymous_args = 0
	.loc 2 748 1
	.syntax unified
@ 748 "../../../nRF5_SDK_17.0.2_d674dde/components/softdevice/s140/headers/nrf_soc.h" 1
	svc #65
bx r14
@ 0 "" 2
	.thumb
	.syntax unified
	nop
	mov	r0, r3
.LFE192:
	.size	sd_app_evt_wait, .-sd_app_evt_wait
	.section	.text.sd_ppi_channel_enable_get,"ax",%progbits
	.align	1
	.syntax unified
	.thumb
	.thumb_func
	.fpu fpv4-sp-d16
	.type	sd_ppi_channel_enable_get, %function
sd_ppi_channel_enable_get:
.LFB193:
	.loc 2 756 1
	@ Naked Function: prologue and epilogue provided by programmer.
	@ args = 0, pretend = 0, frame = 0
	@ frame_needed = 0, uses_anonymous_args = 0
	.loc 2 756 1
	.syntax unified
@ 756 "../../../nRF5_SDK_17.0.2_d674dde/components/softdevice/s140/headers/nrf_soc.h" 1
	svc #32
bx r14
@ 0 "" 2
	.thumb
	.syntax unified
	nop
	mov	r0, r3
.LFE193:
	.size	sd_ppi_channel_enable_get, .-sd_ppi_channel_enable_get
	.section	.text.sd_ppi_channel_enable_set,"ax",%progbits
	.align	1
	.syntax unified
	.thumb
	.thumb_func
	.fpu fpv4-sp-d16
	.type	sd_ppi_channel_enable_set, %function
sd_ppi_channel_enable_set:
.LFB194:
	.loc 2 764 1
	@ Naked Function: prologue and epilogue provided by programmer.
	@ args = 0, pretend = 0, frame = 0
	@ frame_needed = 0, uses_anonymous_args = 0
	.loc 2 764 1
	.syntax unified
@ 764 "../../../nRF5_SDK_17.0.2_d674dde/components/softdevice/s140/headers/nrf_soc.h" 1
	svc #33
bx r14
@ 0 "" 2
	.thumb
	.syntax unified
	nop
	mov	r0, r3
.LFE194:
	.size	sd_ppi_channel_enable_set, .-sd_ppi_channel_enable_set
	.section	.text.sd_ppi_channel_enable_clr,"ax",%progbits
	.align	1
	.syntax unified
	.thumb
	.thumb_func
	.fpu fpv4-sp-d16
	.type	sd_ppi_channel_enable_clr, %function
sd_ppi_channel_enable_clr:
.LFB195:
	.loc 2 772 1
	@ Naked Function: prologue and epilogue provided by programmer.
	@ args = 0, pretend = 0, frame = 0
	@ frame_needed = 0, uses_anonymous_args = 0
	.loc 2 772 1
	.syntax unified
@ 772 "../../../nRF5_SDK_17.0.2_d674dde/components/softdevice/s140/headers/nrf_soc.h" 1
	svc #34
bx r14
@ 0 "" 2
	.thumb
	.syntax unified
	nop
	mov	r0, r3
.LFE195:
	.size	sd_ppi_channel_enable_clr, .-sd_ppi_channel_enable_clr
	.section	.text.sd_ppi_channel_assign,"ax",%progbits
	.align	1
	.syntax unified
	.thumb
	.thumb_func
	.fpu fpv4-sp-d16
	.type	sd_ppi_channel_assign, %function
sd_ppi_channel_assign:
.LFB196:
	.loc 2 783 1
	@ Naked Function: prologue and epilogue provided by programmer.
	@ args = 0, pretend = 0, frame = 0
	@ frame_needed = 0, uses_anonymous_args = 0
	.loc 2 783 1
	.syntax unified
@ 783 "../../../nRF5_SDK_17.0.2_d674dde/components/softdevice/s140/headers/nrf_soc.h" 1
	svc #35
bx r14
@ 0 "" 2
	.thumb
	.syntax unified
	nop
	mov	r0, r3
.LFE196:
	.size	sd_ppi_channel_assign, .-sd_ppi_channel_assign
	.section	.text.sd_ppi_group_task_enable,"ax",%progbits
	.align	1
	.syntax unified
	.thumb
	.thumb_func
	.fpu fpv4-sp-d16
	.type	sd_ppi_group_task_enable, %function
sd_ppi_group_task_enable:
.LFB197:
	.loc 2 792 1
	@ Naked Function: prologue and epilogue provided by programmer.
	@ args = 0, pretend = 0, frame = 0
	@ frame_needed = 0, uses_anonymous_args = 0
	.loc 2 792 1
	.syntax unified
@ 792 "../../../nRF5_SDK_17.0.2_d674dde/components/softdevice/s140/headers/nrf_soc.h" 1
	svc #36
bx r14
@ 0 "" 2
	.thumb
	.syntax unified
	nop
	mov	r0, r3
.LFE197:
	.size	sd_ppi_group_task_enable, .-sd_ppi_group_task_enable
	.section	.text.sd_ppi_group_task_disable,"ax",%progbits
	.align	1
	.syntax unified
	.thumb
	.thumb_func
	.fpu fpv4-sp-d16
	.type	sd_ppi_group_task_disable, %function
sd_ppi_group_task_disable:
.LFB198:
	.loc 2 801 1
	@ Naked Function: prologue and epilogue provided by programmer.
	@ args = 0, pretend = 0, frame = 0
	@ frame_needed = 0, uses_anonymous_args = 0
	.loc 2 801 1
	.syntax unified
@ 801 "../../../nRF5_SDK_17.0.2_d674dde/components/softdevice/s140/headers/nrf_soc.h" 1
	svc #37
bx r14
@ 0 "" 2
	.thumb
	.syntax unified
	nop
	mov	r0, r3
.LFE198:
	.size	sd_ppi_group_task_disable, .-sd_ppi_group_task_disable
	.section	.text.sd_ppi_group_assign,"ax",%progbits
	.align	1
	.syntax unified
	.thumb
	.thumb_func
	.fpu fpv4-sp-d16
	.type	sd_ppi_group_assign, %function
sd_ppi_group_assign:
.LFB199:
	.loc 2 811 1
	@ Naked Function: prologue and epilogue provided by programmer.
	@ args = 0, pretend = 0, frame = 0
	@ frame_needed = 0, uses_anonymous_args = 0
	.loc 2 811 1
	.syntax unified
@ 811 "../../../nRF5_SDK_17.0.2_d674dde/components/softdevice/s140/headers/nrf_soc.h" 1
	svc #38
bx r14
@ 0 "" 2
	.thumb
	.syntax unified
	nop
	mov	r0, r3
.LFE199:
	.size	sd_ppi_group_assign, .-sd_ppi_group_assign
	.section	.text.sd_ppi_group_get,"ax",%progbits
	.align	1
	.syntax unified
	.thumb
	.thumb_func
	.fpu fpv4-sp-d16
	.type	sd_ppi_group_get, %function
sd_ppi_group_get:
.LFB200:
	.loc 2 821 1
	@ Naked Function: prologue and epilogue provided by programmer.
	@ args = 0, pretend = 0, frame = 0
	@ frame_needed = 0, uses_anonymous_args = 0
	.loc 2 821 1
	.syntax unified
@ 821 "../../../nRF5_SDK_17.0.2_d674dde/components/softdevice/s140/headers/nrf_soc.h" 1
	svc #39
bx r14
@ 0 "" 2
	.thumb
	.syntax unified
	nop
	mov	r0, r3
.LFE200:
	.size	sd_ppi_group_get, .-sd_ppi_group_get
	.section	.text.sd_radio_notification_cfg_set,"ax",%progbits
	.align	1
	.syntax unified
	.thumb
	.thumb_func
	.fpu fpv4-sp-d16
	.type	sd_radio_notification_cfg_set, %function
sd_radio_notification_cfg_set:
.LFB201:
	.loc 2 852 1
	@ Naked Function: prologue and epilogue provided by programmer.
	@ args = 0, pretend = 0, frame = 0
	@ frame_needed = 0, uses_anonymous_args = 0
	.loc 2 852 1
	.syntax unified
@ 852 "../../../nRF5_SDK_17.0.2_d674dde/components/softdevice/s140/headers/nrf_soc.h" 1
	svc #69
bx r14
@ 0 "" 2
	.thumb
	.syntax unified
	nop
	mov	r0, r3
.LFE201:
	.size	sd_radio_notification_cfg_set, .-sd_radio_notification_cfg_set
	.section	.text.sd_ecb_block_encrypt,"ax",%progbits
	.align	1
	.syntax unified
	.thumb
	.thumb_func
	.fpu fpv4-sp-d16
	.type	sd_ecb_block_encrypt, %function
sd_ecb_block_encrypt:
.LFB202:
	.loc 2 868 1
	@ Naked Function: prologue and epilogue provided by programmer.
	@ args = 0, pretend = 0, frame = 0
	@ frame_needed = 0, uses_anonymous_args = 0
	.loc 2 868 1
	.syntax unified
@ 868 "../../../nRF5_SDK_17.0.2_d674dde/components/softdevice/s140/headers/nrf_soc.h" 1
	svc #70
bx r14
@ 0 "" 2
	.thumb
	.syntax unified
	nop
	mov	r0, r3
.LFE202:
	.size	sd_ecb_block_encrypt, .-sd_ecb_block_encrypt
	.section	.text.sd_ecb_blocks_encrypt,"ax",%progbits
	.align	1
	.syntax unified
	.thumb
	.thumb_func
	.fpu fpv4-sp-d16
	.type	sd_ecb_blocks_encrypt, %function
sd_ecb_blocks_encrypt:
.LFB203:
	.loc 2 885 1
	@ Naked Function: prologue and epilogue provided by programmer.
	@ args = 0, pretend = 0, frame = 0
	@ frame_needed = 0, uses_anonymous_args = 0
	.loc 2 885 1
	.syntax unified
@ 885 "../../../nRF5_SDK_17.0.2_d674dde/components/softdevice/s140/headers/nrf_soc.h" 1
	svc #71
bx r14
@ 0 "" 2
	.thumb
	.syntax unified
	nop
	mov	r0, r3
.LFE203:
	.size	sd_ecb_blocks_encrypt, .-sd_ecb_blocks_encrypt
	.section	.text.sd_evt_get,"ax",%progbits
	.align	1
	.syntax unified
	.thumb
	.thumb_func
	.fpu fpv4-sp-d16
	.type	sd_evt_get, %function
sd_evt_get:
.LFB204:
	.loc 2 896 1
	@ Naked Function: prologue and epilogue provided by programmer.
	@ args = 0, pretend = 0, frame = 0
	@ frame_needed = 0, uses_anonymous_args = 0
	.loc 2 896 1
	.syntax unified
@ 896 "../../../nRF5_SDK_17.0.2_d674dde/components/softdevice/s140/headers/nrf_soc.h" 1
	svc #75
bx r14
@ 0 "" 2
	.thumb
	.syntax unified
	nop
	mov	r0, r3
.LFE204:
	.size	sd_evt_get, .-sd_evt_get
	.section	.text.sd_temp_get,"ax",%progbits
	.align	1
	.syntax unified
	.thumb
	.thumb_func
	.fpu fpv4-sp-d16
	.type	sd_temp_get, %function
sd_temp_get:
.LFB205:
	.loc 2 907 1
	@ Naked Function: prologue and epilogue provided by programmer.
	@ args = 0, pretend = 0, frame = 0
	@ frame_needed = 0, uses_anonymous_args = 0
	.loc 2 907 1
	.syntax unified
@ 907 "../../../nRF5_SDK_17.0.2_d674dde/components/softdevice/s140/headers/nrf_soc.h" 1
	svc #76
bx r14
@ 0 "" 2
	.thumb
	.syntax unified
	nop
	mov	r0, r3
.LFE205:
	.size	sd_temp_get, .-sd_temp_get
	.section	.text.sd_flash_write,"ax",%progbits
	.align	1
	.syntax unified
	.thumb
	.thumb_func
	.fpu fpv4-sp-d16
	.type	sd_flash_write, %function
sd_flash_write:
.LFB206:
	.loc 2 944 1
	@ Naked Function: prologue and epilogue provided by programmer.
	@ args = 0, pretend = 0, frame = 0
	@ frame_needed = 0, uses_anonymous_args = 0
	.loc 2 944 1
	.syntax unified
@ 944 "../../../nRF5_SDK_17.0.2_d674dde/components/softdevice/s140/headers/nrf_soc.h" 1
	svc #41
bx r14
@ 0 "" 2
	.thumb
	.syntax unified
	nop
	mov	r0, r3
.LFE206:
	.size	sd_flash_write, .-sd_flash_write
	.section	.text.sd_flash_page_erase,"ax",%progbits
	.align	1
	.syntax unified
	.thumb
	.thumb_func
	.fpu fpv4-sp-d16
	.type	sd_flash_page_erase, %function
sd_flash_page_erase:
.LFB207:
	.loc 2 976 1
	@ Naked Function: prologue and epilogue provided by programmer.
	@ args = 0, pretend = 0, frame = 0
	@ frame_needed = 0, uses_anonymous_args = 0
	.loc 2 976 1
	.syntax unified
@ 976 "../../../nRF5_SDK_17.0.2_d674dde/components/softdevice/s140/headers/nrf_soc.h" 1
	svc #40
bx r14
@ 0 "" 2
	.thumb
	.syntax unified
	nop
	mov	r0, r3
.LFE207:
	.size	sd_flash_page_erase, .-sd_flash_page_erase
	.section	.text.sd_radio_session_open,"ax",%progbits
	.align	1
	.syntax unified
	.thumb
	.thumb_func
	.fpu fpv4-sp-d16
	.type	sd_radio_session_open, %function
sd_radio_session_open:
.LFB208:
	.loc 2 1000 2
	@ Naked Function: prologue and epilogue provided by programmer.
	@ args = 0, pretend = 0, frame = 0
	@ frame_needed = 0, uses_anonymous_args = 0
	.loc 2 1000 2
	.syntax unified
@ 1000 "../../../nRF5_SDK_17.0.2_d674dde/components/softdevice/s140/headers/nrf_soc.h" 1
	svc #72
bx r14
@ 0 "" 2
	.thumb
	.syntax unified
	nop
	mov	r0, r3
.LFE208:
	.size	sd_radio_session_open, .-sd_radio_session_open
	.section	.text.sd_radio_session_close,"ax",%progbits
	.align	1
	.syntax unified
	.thumb
	.thumb_func
	.fpu fpv4-sp-d16
	.type	sd_radio_session_close, %function
sd_radio_session_close:
.LFB209:
	.loc 2 1013 2
	@ Naked Function: prologue and epilogue provided by programmer.
	@ args = 0, pretend = 0, frame = 0
	@ frame_needed = 0, uses_anonymous_args = 0
	.loc 2 1013 2
	.syntax unified
@ 1013 "../../../nRF5_SDK_17.0.2_d674dde/components/softdevice/s140/headers/nrf_soc.h" 1
	svc #73
bx r14
@ 0 "" 2
	.thumb
	.syntax unified
	nop
	mov	r0, r3
.LFE209:
	.size	sd_radio_session_close, .-sd_radio_session_close
	.section	.text.sd_radio_request,"ax",%progbits
	.align	1
	.syntax unified
	.thumb
	.thumb_func
	.fpu fpv4-sp-d16
	.type	sd_radio_request, %function
sd_radio_request:
.LFB210:
	.loc 2 1050 2
	@ Naked Function: prologue and epilogue provided by programmer.
	@ args = 0, pretend = 0, frame = 0
	@ frame_needed = 0, uses_anonymous_args = 0
	.loc 2 1050 2
	.syntax unified
@ 1050 "../../../nRF5_SDK_17.0.2_d674dde/components/softdevice/s140/headers/nrf_soc.h" 1
	svc #74
bx r14
@ 0 "" 2
	.thumb
	.syntax unified
	nop
	mov	r0, r3
.LFE210:
	.size	sd_radio_request, .-sd_radio_request
	.section	.text.sd_protected_register_write,"ax",%progbits
	.align	1
	.syntax unified
	.thumb
	.thumb_func
	.fpu fpv4-sp-d16
	.type	sd_protected_register_write, %function
sd_protected_register_write:
.LFB211:
	.loc 2 1071 1
	@ Naked Function: prologue and epilogue provided by programmer.
	@ args = 0, pretend = 0, frame = 0
	@ frame_needed = 0, uses_anonymous_args = 0
	.loc 2 1071 1
	.syntax unified
@ 1071 "../../../nRF5_SDK_17.0.2_d674dde/components/softdevice/s140/headers/nrf_soc.h" 1
	svc #43
bx r14
@ 0 "" 2
	.thumb
	.syntax unified
	nop
	mov	r0, r3
.LFE211:
	.size	sd_protected_register_write, .-sd_protected_register_write
	.section	.text.nrf_gpio_pin_port_decode,"ax",%progbits
	.align	1
	.syntax unified
	.thumb
	.thumb_func
	.fpu fpv4-sp-d16
	.type	nrf_gpio_pin_port_decode, %function
nrf_gpio_pin_port_decode:
.LFB227:
	.file 3 "../../../nRF5_SDK_17.0.2_d674dde/modules/nrfx/hal/nrf_gpio.h"
	.loc 3 491 1
	@ args = 0, pretend = 0, frame = 8
	@ frame_needed = 0, uses_anonymous_args = 0
	@ link register save eliminated.
	sub	sp, sp, #8
.LCFI0:
	str	r0, [sp, #4]
	.loc 3 496 9
	ldr	r3, [sp, #4]
	ldr	r3, [r3]
	.loc 3 496 8
	cmp	r3, #31
	bhi	.L51
	.loc 3 498 16
	mov	r3, #1342177280
	b	.L52
.L51:
	.loc 3 502 18
	ldr	r3, [sp, #4]
	ldr	r3, [r3]
	.loc 3 502 25
	and	r2, r3, #31
	.loc 3 502 16
	ldr	r3, [sp, #4]
	str	r2, [r3]
	.loc 3 503 16
	ldr	r3, .L53
.L52:
	.loc 3 506 1
	mov	r0, r3
	add	sp, sp, #8
.LCFI1:
	@ sp needed
	bx	lr
.L54:
	.align	2
.L53:
	.word	1342178048
.LFE227:
	.size	nrf_gpio_pin_port_decode, .-nrf_gpio_pin_port_decode
	.section	.text.nrf_gpio_pin_out_read,"ax",%progbits
	.align	1
	.syntax unified
	.thumb
	.thumb_func
	.fpu fpv4-sp-d16
	.type	nrf_gpio_pin_out_read, %function
nrf_gpio_pin_out_read:
.LFB244:
	.loc 3 697 1
	@ args = 0, pretend = 0, frame = 16
	@ frame_needed = 0, uses_anonymous_args = 0
	push	{lr}
.LCFI2:
	sub	sp, sp, #20
.LCFI3:
	str	r0, [sp, #4]
	.loc 3 698 27
	add	r3, sp, #4
	mov	r0, r3
	bl	nrf_gpio_pin_port_decode
	str	r0, [sp, #12]
	.loc 3 700 14
	ldr	r0, [sp, #12]
	bl	nrf_gpio_port_out_read
	mov	r2, r0
	.loc 3 700 42
	ldr	r3, [sp, #4]
	lsr	r3, r2, r3
	.loc 3 700 57
	and	r3, r3, #1
	.loc 3 701 1
	mov	r0, r3
	add	sp, sp, #20
.LCFI4:
	@ sp needed
	ldr	pc, [sp], #4
.LFE244:
	.size	nrf_gpio_pin_out_read, .-nrf_gpio_pin_out_read
	.section	.text.nrf_gpio_port_out_read,"ax",%progbits
	.align	1
	.syntax unified
	.thumb
	.thumb_func
	.fpu fpv4-sp-d16
	.type	nrf_gpio_port_out_read, %function
nrf_gpio_port_out_read:
.LFB254:
	.loc 3 769 1
	@ args = 0, pretend = 0, frame = 8
	@ frame_needed = 0, uses_anonymous_args = 0
	@ link register save eliminated.
	sub	sp, sp, #8
.LCFI5:
	str	r0, [sp, #4]
	.loc 3 770 17
	ldr	r3, [sp, #4]
	ldr	r3, [r3, #1284]
	.loc 3 771 1
	mov	r0, r3
	add	sp, sp, #8
.LCFI6:
	@ sp needed
	bx	lr
.LFE254:
	.size	nrf_gpio_port_out_read, .-nrf_gpio_port_out_read
	.section	.text.timer_diff,"ax",%progbits
	.align	1
	.syntax unified
	.thumb
	.thumb_func
	.fpu fpv4-sp-d16
	.type	timer_diff, %function
timer_diff:
.LFB273:
	.file 4 "../../mesh/core/include/timer.h"
	.loc 4 84 1
	@ args = 0, pretend = 0, frame = 8
	@ frame_needed = 0, uses_anonymous_args = 0
	@ link register save eliminated.
	sub	sp, sp, #8
.LCFI7:
	str	r0, [sp, #4]
	str	r1, [sp]
	.loc 4 85 15
	ldr	r2, [sp, #4]
	ldr	r3, [sp]
	subs	r3, r2, r3
	.loc 4 85 8
	cmp	r3, #0
	bge	.L60
	.loc 4 87 22
	ldr	r2, [sp]
	ldr	r3, [sp, #4]
	subs	r3, r2, r3
	b	.L61
.L60:
	.loc 4 91 22
	ldr	r2, [sp, #4]
	ldr	r3, [sp]
	subs	r3, r2, r3
.L61:
	.loc 4 93 1
	mov	r0, r3
	add	sp, sp, #8
.LCFI8:
	@ sp needed
	bx	lr
.LFE273:
	.size	timer_diff, .-timer_diff
	.section	.data.m_buttons_list,"aw"
	.align	2
	.type	m_buttons_list, %object
	.size	m_buttons_list, 4
m_buttons_list:
	.ascii	"\013\014\030\031"
	.section	.bss.m_last_button_press,"aw",%nobits
	.align	2
	.type	m_last_button_press, %object
	.size	m_last_button_press, 4
m_last_button_press:
	.space	4
	.section	.bss.m_button_handler_cb,"aw",%nobits
	.align	2
	.type	m_button_handler_cb, %object
	.size	m_button_handler_cb, 4
m_button_handler_cb:
	.space	4
	.section	.bss.m_blink_timer_data,"aw",%nobits
	.align	2
	.type	m_blink_timer_data, %object
	.size	m_blink_timer_data, 32
m_blink_timer_data:
	.space	32
	.section	.rodata.m_blink_timer,"a"
	.align	2
	.type	m_blink_timer, %object
	.size	m_blink_timer, 4
m_blink_timer:
	.word	m_blink_timer_data
	.section	.bss.m_blink_count,"aw",%nobits
	.align	2
	.type	m_blink_count, %object
	.size	m_blink_count, 4
m_blink_count:
	.space	4
	.section	.bss.m_blink_mask,"aw",%nobits
	.align	2
	.type	m_blink_mask, %object
	.size	m_blink_mask, 4
m_blink_mask:
	.space	4
	.section	.bss.m_prev_state,"aw",%nobits
	.align	2
	.type	m_prev_state, %object
	.size	m_prev_state, 4
m_prev_state:
	.space	4
	.section	.rodata.m_leds_list,"a"
	.align	2
	.type	m_leds_list, %object
	.size	m_leds_list, 4
m_leds_list:
	.ascii	"\015\016\017\020"
	.section	.text.button_event_handler,"ax",%progbits
	.align	1
	.syntax unified
	.thumb
	.thumb_func
	.fpu fpv4-sp-d16
	.type	button_event_handler, %function
button_event_handler:
.LFB297:
	.file 5 "/home/gaosheng/mesh/my_mesh/nrf5_SDK_for_Mesh_v5.0.0_src/examples/common/src/simple_hal.c"
	.loc 5 79 1
	@ args = 0, pretend = 0, frame = 16
	@ frame_needed = 0, uses_anonymous_args = 0
	push	{r4, lr}
.LCFI9:
	sub	sp, sp, #16
.LCFI10:
	str	r0, [sp, #4]
	mov	r3, r1
	strb	r3, [sp, #3]
.LBB2:
	.loc 5 80 19
	movs	r3, #0
	str	r3, [sp, #12]
	.loc 5 80 5
	b	.L63
.L65:
	.loc 5 82 34
	ldr	r2, .L66
	ldr	r3, [sp, #12]
	add	r3, r3, r2
	ldrb	r3, [r3]	@ zero_extendqisi2
	mov	r2, r3
	.loc 5 82 12
	ldr	r3, [sp, #4]
	cmp	r3, r2
	bne	.L64
	.loc 5 86 17
	ldr	r3, .L66+4
	ldr	r4, [r3]
	bl	timer_now
	mov	r3, r0
	mov	r1, r3
	mov	r0, r4
	bl	timer_diff
	mov	r3, r0
	.loc 5 86 16
	ldr	r2, .L66+8
	cmp	r3, r2
	bls	.L64
	.loc 5 88 39
	bl	timer_now
	mov	r3, r0
	.loc 5 88 37
	ldr	r2, .L66+4
	str	r3, [r2]
	.loc 5 89 17
	ldr	r3, .L66+12
	ldr	r3, [r3]
	ldr	r0, [sp, #12]
	blx	r3
.LVL0:
.L64:
	.loc 5 80 59 discriminator 2
	ldr	r3, [sp, #12]
	adds	r3, r3, #1
	str	r3, [sp, #12]
.L63:
	.loc 5 80 5 discriminator 1
	ldr	r3, [sp, #12]
	cmp	r3, #3
	bls	.L65
.LBE2:
	.loc 5 93 1
	nop
	nop
	add	sp, sp, #16
.LCFI11:
	@ sp needed
	pop	{r4, pc}
.L67:
	.align	2
.L66:
	.word	m_buttons_list
	.word	m_last_button_press
	.word	400000
	.word	m_button_handler_cb
.LFE297:
	.size	button_event_handler, .-button_event_handler
	.section	.text.hal_led_mask_state_get,"ax",%progbits
	.align	1
	.syntax unified
	.thumb
	.thumb_func
	.fpu fpv4-sp-d16
	.type	hal_led_mask_state_get, %function
hal_led_mask_state_get:
.LFB298:
	.loc 5 96 1
	@ args = 0, pretend = 0, frame = 16
	@ frame_needed = 0, uses_anonymous_args = 0
	push	{lr}
.LCFI12:
	sub	sp, sp, #20
.LCFI13:
	str	r0, [sp, #4]
	.loc 5 97 14
	movs	r3, #0
	str	r3, [sp, #12]
.LBB3:
	.loc 5 98 19
	movs	r3, #0
	str	r3, [sp, #8]
	.loc 5 98 5
	b	.L69
.L71:
	.loc 5 100 27
	movs	r2, #1
	ldr	r3, [sp, #8]
	lsl	r3, r2, r3
	mov	r2, r3
	.loc 5 100 22
	ldr	r3, [sp, #4]
	ands	r3, r3, r2
	.loc 5 100 12
	cmp	r3, #0
	beq	.L70
	.loc 5 102 57
	ldr	r2, .L73
	ldr	r3, [sp, #8]
	add	r3, r3, r2
	ldrb	r3, [r3]	@ zero_extendqisi2
	.loc 5 102 30
	mov	r0, r3
	bl	hal_led_pin_get
	mov	r3, r0
	mov	r2, r3
	.loc 5 102 62
	ldr	r3, [sp, #8]
	lsl	r3, r2, r3
	mov	r2, r3
	.loc 5 102 19
	ldr	r3, [sp, #12]
	orrs	r3, r3, r2
	str	r3, [sp, #12]
.L70:
	.loc 5 98 55 discriminator 2
	ldr	r3, [sp, #8]
	adds	r3, r3, #1
	str	r3, [sp, #8]
.L69:
	.loc 5 98 5 discriminator 1
	ldr	r3, [sp, #8]
	cmp	r3, #3
	bls	.L71
.LBE3:
	.loc 5 105 12
	ldr	r3, [sp, #12]
	.loc 5 106 1
	mov	r0, r3
	add	sp, sp, #20
.LCFI14:
	@ sp needed
	ldr	pc, [sp], #4
.L74:
	.align	2
.L73:
	.word	m_leds_list
.LFE298:
	.size	hal_led_mask_state_get, .-hal_led_mask_state_get
	.section	.text.hal_led_mask_toggle,"ax",%progbits
	.align	1
	.syntax unified
	.thumb
	.thumb_func
	.fpu fpv4-sp-d16
	.type	hal_led_mask_toggle, %function
hal_led_mask_toggle:
.LFB299:
	.loc 5 109 1
	@ args = 0, pretend = 0, frame = 16
	@ frame_needed = 0, uses_anonymous_args = 0
	push	{r4, lr}
.LCFI15:
	sub	sp, sp, #16
.LCFI16:
	str	r0, [sp, #4]
.LBB4:
	.loc 5 110 19
	movs	r3, #0
	str	r3, [sp, #12]
	.loc 5 110 5
	b	.L76
.L78:
	.loc 5 112 27
	movs	r2, #1
	ldr	r3, [sp, #12]
	lsl	r3, r2, r3
	mov	r2, r3
	.loc 5 112 22
	ldr	r3, [sp, #4]
	ands	r3, r3, r2
	.loc 5 112 12
	cmp	r3, #0
	beq	.L77
	.loc 5 114 40
	ldr	r2, .L79
	ldr	r3, [sp, #12]
	add	r3, r3, r2
	ldrb	r3, [r3]	@ zero_extendqisi2
	.loc 5 114 13
	mov	r4, r3
	.loc 5 114 73
	ldr	r2, .L79
	ldr	r3, [sp, #12]
	add	r3, r3, r2
	ldrb	r3, [r3]	@ zero_extendqisi2
	.loc 5 114 46
	mov	r0, r3
	bl	hal_led_pin_get
	mov	r3, r0
	.loc 5 114 13
	cmp	r3, #0
	ite	ne
	movne	r3, #1
	moveq	r3, #0
	uxtb	r3, r3
	eor	r3, r3, #1
	uxtb	r3, r3
	and	r3, r3, #1
	uxtb	r3, r3
	mov	r1, r3
	mov	r0, r4
	bl	hal_led_pin_set
.L77:
	.loc 5 110 56 discriminator 2
	ldr	r3, [sp, #12]
	adds	r3, r3, #1
	str	r3, [sp, #12]
.L76:
	.loc 5 110 5 discriminator 1
	ldr	r3, [sp, #12]
	cmp	r3, #3
	bls	.L78
.LBE4:
	.loc 5 117 1
	nop
	nop
	add	sp, sp, #16
.LCFI17:
	@ sp needed
	pop	{r4, pc}
.L80:
	.align	2
.L79:
	.word	m_leds_list
.LFE299:
	.size	hal_led_mask_toggle, .-hal_led_mask_toggle
	.section	.text.led_timeout_handler,"ax",%progbits
	.align	1
	.syntax unified
	.thumb
	.thumb_func
	.fpu fpv4-sp-d16
	.type	led_timeout_handler, %function
led_timeout_handler:
.LFB300:
	.loc 5 125 1
	@ args = 0, pretend = 0, frame = 16
	@ frame_needed = 0, uses_anonymous_args = 0
	push	{lr}
.LCFI18:
	sub	sp, sp, #20
.LCFI19:
	str	r0, [sp, #4]
.LBB5:
	.loc 5 126 5
	ldr	r3, .L88
	ldr	r3, [r3]
	cmp	r3, #0
	ite	ne
	movne	r3, #1
	moveq	r3, #0
	uxtb	r3, r3
	str	r3, [sp, #8]
	ldr	r3, [sp, #8]
	cmp	r3, #0
	bne	.L82
	.loc 5 126 5 is_stmt 0 discriminator 1
	movs	r0, #0
	bl	app_error_handler_bare
.L82:
.LBE5:
	.loc 5 127 5 is_stmt 1
	ldr	r3, .L88+4
	ldr	r3, [r3]
	mov	r0, r3
	bl	hal_led_mask_toggle
	.loc 5 129 18
	ldr	r3, .L88
	ldr	r3, [r3]
	subs	r3, r3, #1
	ldr	r2, .L88
	str	r3, [r2]
	.loc 5 130 23
	ldr	r3, .L88
	ldr	r3, [r3]
	.loc 5 130 8
	cmp	r3, #0
	bne	.L87
	.loc 5 132 9
	ldr	r3, .L88+8
	.loc 5 132 16
	mov	r0, r3
	bl	app_timer_stop
.LBB6:
	.loc 5 133 23
	movs	r3, #0
	str	r3, [sp, #12]
	.loc 5 133 9
	b	.L84
.L86:
	.loc 5 135 35
	movs	r2, #1
	ldr	r3, [sp, #12]
	lsl	r3, r2, r3
	mov	r2, r3
	.loc 5 135 30
	ldr	r3, .L88+4
	ldr	r3, [r3]
	ands	r3, r3, r2
	.loc 5 135 16
	cmp	r3, #0
	beq	.L85
	.loc 5 137 44
	ldr	r2, .L88+12
	ldr	r3, [sp, #12]
	add	r3, r3, r2
	ldrb	r3, [r3]	@ zero_extendqisi2
	.loc 5 137 17
	mov	r0, r3
	.loc 5 137 64
	ldr	r3, .L88+16
	ldr	r2, [r3]
	ldr	r3, [sp, #12]
	lsr	r3, r2, r3
	.loc 5 137 70
	and	r3, r3, #1
	.loc 5 137 17
	cmp	r3, #0
	ite	ne
	movne	r3, #1
	moveq	r3, #0
	uxtb	r3, r3
	mov	r1, r3
	bl	hal_led_pin_set
.L85:
	.loc 5 133 60 discriminator 2
	ldr	r3, [sp, #12]
	adds	r3, r3, #1
	str	r3, [sp, #12]
.L84:
	.loc 5 133 9 discriminator 1
	ldr	r3, [sp, #12]
	cmp	r3, #3
	bls	.L86
.L87:
.LBE6:
	.loc 5 141 1
	nop
	add	sp, sp, #20
.LCFI20:
	@ sp needed
	ldr	pc, [sp], #4
.L89:
	.align	2
.L88:
	.word	m_blink_count
	.word	m_blink_mask
	.word	m_blink_timer_data
	.word	m_leds_list
	.word	m_prev_state
.LFE300:
	.size	led_timeout_handler, .-led_timeout_handler
	.section	.text.hal_led_pin_get,"ax",%progbits
	.align	1
	.global	hal_led_pin_get
	.syntax unified
	.thumb
	.thumb_func
	.fpu fpv4-sp-d16
	.type	hal_led_pin_get, %function
hal_led_pin_get:
.LFB301:
	.loc 5 145 1
	@ args = 0, pretend = 0, frame = 8
	@ frame_needed = 0, uses_anonymous_args = 0
	push	{lr}
.LCFI21:
	sub	sp, sp, #12
.LCFI22:
	str	r0, [sp, #4]
	.loc 5 147 13
	ldr	r0, [sp, #4]
	bl	nrf_gpio_pin_out_read
	mov	r3, r0
	.loc 5 147 40
	cmp	r3, #0
	ite	eq
	moveq	r3, #1
	movne	r3, #0
	uxtb	r3, r3
	.loc 5 148 1
	mov	r0, r3
	add	sp, sp, #12
.LCFI23:
	@ sp needed
	ldr	pc, [sp], #4
.LFE301:
	.size	hal_led_pin_get, .-hal_led_pin_get
	.section	.text.hal_led_pin_set,"ax",%progbits
	.align	1
	.global	hal_led_pin_set
	.syntax unified
	.thumb
	.thumb_func
	.fpu fpv4-sp-d16
	.type	hal_led_pin_set, %function
hal_led_pin_set:
.LFB302:
	.loc 5 151 1
	@ args = 0, pretend = 0, frame = 8
	@ frame_needed = 0, uses_anonymous_args = 0
	push	{lr}
.LCFI24:
	sub	sp, sp, #12
.LCFI25:
	str	r0, [sp, #4]
	mov	r3, r1
	strb	r3, [sp, #3]
	.loc 5 153 8
	ldrb	r3, [sp, #3]	@ zero_extendqisi2
	cmp	r3, #0
	beq	.L93
	.loc 5 155 9
	ldr	r0, [sp, #4]
	bl	nrfx_gpiote_out_clear
	.loc 5 161 1
	b	.L95
.L93:
	.loc 5 159 9
	ldr	r0, [sp, #4]
	bl	nrfx_gpiote_out_set
.L95:
	.loc 5 161 1
	nop
	add	sp, sp, #12
.LCFI26:
	@ sp needed
	ldr	pc, [sp], #4
.LFE302:
	.size	hal_led_pin_set, .-hal_led_pin_set
	.section	.text.hal_led_mask_set,"ax",%progbits
	.align	1
	.global	hal_led_mask_set
	.syntax unified
	.thumb
	.thumb_func
	.fpu fpv4-sp-d16
	.type	hal_led_mask_set, %function
hal_led_mask_set:
.LFB303:
	.loc 5 164 1
	@ args = 0, pretend = 0, frame = 16
	@ frame_needed = 0, uses_anonymous_args = 0
	push	{lr}
.LCFI27:
	sub	sp, sp, #20
.LCFI28:
	str	r0, [sp, #4]
	mov	r3, r1
	strb	r3, [sp, #3]
.LBB7:
	.loc 5 165 19
	movs	r3, #0
	str	r3, [sp, #12]
	.loc 5 165 5
	b	.L97
.L99:
	.loc 5 167 27
	movs	r2, #1
	ldr	r3, [sp, #12]
	lsl	r3, r2, r3
	mov	r2, r3
	.loc 5 167 22
	ldr	r3, [sp, #4]
	ands	r3, r3, r2
	.loc 5 167 12
	cmp	r3, #0
	beq	.L98
	.loc 5 169 40
	ldr	r2, .L100
	ldr	r3, [sp, #12]
	add	r3, r3, r2
	ldrb	r3, [r3]	@ zero_extendqisi2
	.loc 5 169 13
	mov	r2, r3
	ldrb	r3, [sp, #3]	@ zero_extendqisi2
	mov	r1, r3
	mov	r0, r2
	bl	hal_led_pin_set
.L98:
	.loc 5 165 56 discriminator 2
	ldr	r3, [sp, #12]
	adds	r3, r3, #1
	str	r3, [sp, #12]
.L97:
	.loc 5 165 5 discriminator 1
	ldr	r3, [sp, #12]
	cmp	r3, #3
	bls	.L99
.LBE7:
	.loc 5 172 1
	nop
	nop
	add	sp, sp, #20
.LCFI29:
	@ sp needed
	ldr	pc, [sp], #4
.L101:
	.align	2
.L100:
	.word	m_leds_list
.LFE303:
	.size	hal_led_mask_set, .-hal_led_mask_set
	.global	__aeabi_uldivmod
	.section	.text.hal_led_blink_ms,"ax",%progbits
	.align	1
	.global	hal_led_blink_ms
	.syntax unified
	.thumb
	.thumb_func
	.fpu fpv4-sp-d16
	.type	hal_led_blink_ms, %function
hal_led_blink_ms:
.LFB304:
	.loc 5 175 1
	@ args = 0, pretend = 0, frame = 16
	@ frame_needed = 0, uses_anonymous_args = 0
	push	{r4, r5, r6, r7, lr}
.LCFI30:
	sub	sp, sp, #20
.LCFI31:
	str	r0, [sp, #12]
	str	r1, [sp, #8]
	str	r2, [sp, #4]
	.loc 5 176 8
	ldr	r3, [sp, #4]
	cmp	r3, #0
	beq	.L106
	.loc 5 176 26 discriminator 1
	ldr	r3, [sp, #8]
	cmp	r3, #19
	bls	.L106
	.loc 5 181 19
	ldr	r2, .L107
	ldr	r3, [sp, #12]
	str	r3, [r2]
	.loc 5 182 33
	ldr	r3, [sp, #4]
	lsls	r3, r3, #1
	.loc 5 182 37
	subs	r3, r3, #1
	.loc 5 182 19
	ldr	r2, .L107+4
	str	r3, [r2]
	.loc 5 183 20
	ldr	r3, .L107
	ldr	r3, [r3]
	mov	r0, r3
	bl	hal_led_mask_state_get
	mov	r3, r0
	.loc 5 183 18
	ldr	r2, .L107+8
	str	r3, [r2]
	.loc 5 185 9
	ldr	r3, .L107+12
	str	r3, [sp]
	.loc 5 185 40
	ldr	r3, [sp, #8]
	movs	r2, #0
	mov	r4, r3
	mov	r5, r2
	mov	r2, #0
	mov	r3, #0
	lsls	r3, r5, #15
	orr	r3, r3, r4, lsr #17
	lsls	r2, r4, #15
	adds	r6, r2, #500
	adc	r7, r3, #0
	mov	r2, #1000
	mov	r3, #0
	mov	r0, r6
	mov	r1, r7
	bl	__aeabi_uldivmod
	mov	r2, r0
	mov	r3, r1
	.loc 5 185 9
	mov	r3, r2
	movs	r2, #0
	mov	r1, r3
	ldr	r0, [sp]
	bl	app_timer_start
	mov	r3, r0
	.loc 5 185 8
	cmp	r3, #0
	bne	.L102
	.loc 5 189 9
	ldr	r3, .L107
	ldr	r3, [r3]
	movs	r1, #1
	mov	r0, r3
	bl	hal_led_mask_set
	b	.L102
.L106:
	.loc 5 178 9
	nop
.L102:
	.loc 5 191 1
	add	sp, sp, #20
.LCFI32:
	@ sp needed
	pop	{r4, r5, r6, r7, pc}
.L108:
	.align	2
.L107:
	.word	m_blink_mask
	.word	m_blink_count
	.word	m_prev_state
	.word	m_blink_timer_data
.LFE304:
	.size	hal_led_blink_ms, .-hal_led_blink_ms
	.section	.text.hal_led_blink_stop,"ax",%progbits
	.align	1
	.global	hal_led_blink_stop
	.syntax unified
	.thumb
	.thumb_func
	.fpu fpv4-sp-d16
	.type	hal_led_blink_stop, %function
hal_led_blink_stop:
.LFB305:
	.loc 5 194 1
	@ args = 0, pretend = 0, frame = 0
	@ frame_needed = 0, uses_anonymous_args = 0
	push	{r3, lr}
.LCFI33:
	.loc 5 195 5
	ldr	r3, .L110
	.loc 5 195 12
	mov	r0, r3
	bl	app_timer_stop
	.loc 5 196 5
	ldr	r3, .L110+4
	ldr	r3, [r3]
	movs	r1, #0
	mov	r0, r3
	bl	hal_led_mask_set
	.loc 5 197 1
	nop
	pop	{r3, pc}
.L111:
	.align	2
.L110:
	.word	m_blink_timer_data
	.word	m_blink_mask
.LFE305:
	.size	hal_led_blink_stop, .-hal_led_blink_stop
	.section	.text.hal_leds_init,"ax",%progbits
	.align	1
	.global	hal_leds_init
	.syntax unified
	.thumb
	.thumb_func
	.fpu fpv4-sp-d16
	.type	hal_leds_init, %function
hal_leds_init:
.LFB306:
	.loc 5 200 1
	@ args = 0, pretend = 0, frame = 24
	@ frame_needed = 0, uses_anonymous_args = 0
	push	{lr}
.LCFI34:
	sub	sp, sp, #28
.LCFI35:
	.loc 5 201 10
	bl	nrfx_gpiote_is_init
	mov	r3, r0
	.loc 5 201 9
	eor	r3, r3, #1
	uxtb	r3, r3
	.loc 5 201 8
	cmp	r3, #0
	beq	.L113
.LBB8:
	.loc 5 203 9
	bl	nrfx_gpiote_init
	str	r0, [sp, #16]
	ldr	r3, [sp, #16]
	cmp	r3, #0
	beq	.L113
	.loc 5 203 9 is_stmt 0 discriminator 1
	ldr	r0, [sp, #16]
	bl	app_error_handler_bare
.L113:
.LBE8:
	.loc 5 205 30 is_stmt 1
	add	r3, sp, #4
	movs	r1, #0
	mov	r2, r1	@ movhi
	strh	r2, [r3]	@ movhi
	mov	r2, r1
	strb	r2, [r3, #2]
	movs	r3, #1
	strb	r3, [sp, #5]
.LBB9:
	.loc 5 206 19
	movs	r3, #0
	str	r3, [sp, #20]
	.loc 5 206 5
	b	.L114
.L116:
.LBB10:
	.loc 5 208 9
	ldr	r2, .L119
	ldr	r3, [sp, #20]
	add	r3, r3, r2
	ldrb	r3, [r3]	@ zero_extendqisi2
	mov	r2, r3
	add	r3, sp, #4
	mov	r1, r3
	mov	r0, r2
	bl	nrfx_gpiote_out_init
	str	r0, [sp, #8]
	ldr	r3, [sp, #8]
	cmp	r3, #0
	beq	.L115
	.loc 5 208 9 is_stmt 0 discriminator 1
	ldr	r0, [sp, #8]
	bl	app_error_handler_bare
.L115:
.LBE10:
	.loc 5 206 56 is_stmt 1 discriminator 2
	ldr	r3, [sp, #20]
	adds	r3, r3, #1
	str	r3, [sp, #20]
.L114:
	.loc 5 206 5 discriminator 1
	ldr	r3, [sp, #20]
	cmp	r3, #3
	bls	.L116
.LBE9:
.LBB11:
	.loc 5 210 5
	ldr	r2, .L119+4
	movs	r1, #1
	ldr	r0, .L119+8
	bl	app_timer_create
	str	r0, [sp, #12]
	ldr	r3, [sp, #12]
	cmp	r3, #0
	beq	.L118
	.loc 5 210 5 is_stmt 0 discriminator 1
	ldr	r0, [sp, #12]
	bl	app_error_handler_bare
.L118:
.LBE11:
	.loc 5 211 1 is_stmt 1
	nop
	add	sp, sp, #28
.LCFI36:
	@ sp needed
	ldr	pc, [sp], #4
.L120:
	.align	2
.L119:
	.word	m_leds_list
	.word	led_timeout_handler
	.word	m_blink_timer
.LFE306:
	.size	hal_leds_init, .-hal_leds_init
	.section .rodata
	.align	2
.LC0:
	.byte	2
	.byte	3
	.byte	0
	.section	.text.hal_buttons_init,"ax",%progbits
	.align	1
	.global	hal_buttons_init
	.syntax unified
	.thumb
	.thumb_func
	.fpu fpv4-sp-d16
	.type	hal_buttons_init, %function
hal_buttons_init:
.LFB307:
	.loc 5 215 1
	@ args = 0, pretend = 0, frame = 24
	@ frame_needed = 0, uses_anonymous_args = 0
	push	{lr}
.LCFI37:
	sub	sp, sp, #28
.LCFI38:
	str	r0, [sp, #4]
	.loc 5 219 8
	ldr	r3, [sp, #4]
	cmp	r3, #0
	bne	.L122
	.loc 5 221 16
	movs	r3, #14
	b	.L128
.L122:
	.loc 5 228 25
	ldr	r2, .L129
	ldr	r3, [sp, #4]
	str	r3, [r2]
	.loc 5 230 10
	bl	nrfx_gpiote_is_init
	mov	r3, r0
	.loc 5 230 9
	eor	r3, r3, #1
	uxtb	r3, r3
	.loc 5 230 8
	cmp	r3, #0
	beq	.L124
.LBB12:
	.loc 5 232 9
	bl	nrfx_gpiote_init
	str	r0, [sp, #16]
	ldr	r3, [sp, #16]
	cmp	r3, #0
	beq	.L124
	.loc 5 232 9 is_stmt 0 discriminator 1
	ldr	r0, [sp, #16]
	bl	app_error_handler_bare
.L124:
.LBE12:
	.loc 5 235 29 is_stmt 1
	ldr	r2, .L129+4
	add	r3, sp, #8
	ldr	r2, [r2]
	mov	r1, r2	@ movhi
	strh	r1, [r3]	@ movhi
	adds	r3, r3, #2
	lsrs	r2, r2, #16
	strb	r2, [r3]
.LBB13:
	.loc 5 242 19
	movs	r3, #0
	str	r3, [sp, #20]
	.loc 5 242 5
	b	.L125
.L127:
.LBB14:
	.loc 5 244 9
	ldr	r2, .L129+8
	ldr	r3, [sp, #20]
	add	r3, r3, r2
	ldrb	r3, [r3]	@ zero_extendqisi2
	mov	r0, r3
	add	r3, sp, #8
	ldr	r2, .L129+12
	mov	r1, r3
	bl	nrfx_gpiote_in_init
	str	r0, [sp, #12]
	ldr	r3, [sp, #12]
	cmp	r3, #0
	beq	.L126
	.loc 5 244 9 is_stmt 0 discriminator 1
	ldr	r0, [sp, #12]
	bl	app_error_handler_bare
.L126:
.LBE14:
	.loc 5 245 51 is_stmt 1 discriminator 2
	ldr	r2, .L129+8
	ldr	r3, [sp, #20]
	add	r3, r3, r2
	ldrb	r3, [r3]	@ zero_extendqisi2
	.loc 5 245 9 discriminator 2
	movs	r1, #1
	mov	r0, r3
	bl	nrfx_gpiote_in_event_enable
	.loc 5 242 46 discriminator 2
	ldr	r3, [sp, #20]
	adds	r3, r3, #1
	str	r3, [sp, #20]
.L125:
	.loc 5 242 5 discriminator 1
	ldr	r3, [sp, #20]
	cmp	r3, #3
	bls	.L127
.LBE13:
	.loc 5 248 12
	movs	r3, #0
.L128:
	.loc 5 251 1 discriminator 1
	mov	r0, r3
	add	sp, sp, #28
.LCFI39:
	@ sp needed
	ldr	pc, [sp], #4
.L130:
	.align	2
.L129:
	.word	m_button_handler_cb
	.word	.LC0
	.word	m_buttons_list
	.word	button_event_handler
.LFE307:
	.size	hal_buttons_init, .-hal_buttons_init
	.section	.debug_frame,"",%progbits
.Lframe0:
	.4byte	.LECIE0-.LSCIE0
.LSCIE0:
	.4byte	0xffffffff
	.byte	0x3
	.ascii	"\000"
	.uleb128 0x1
	.sleb128 -4
	.uleb128 0xe
	.byte	0xc
	.uleb128 0xd
	.uleb128 0
	.align	2
.LECIE0:
.LSFDE0:
	.4byte	.LEFDE0-.LASFDE0
.LASFDE0:
	.4byte	.Lframe0
	.4byte	.LFB133
	.4byte	.LFE133-.LFB133
	.align	2
.LEFDE0:
.LSFDE2:
	.4byte	.LEFDE2-.LASFDE2
.LASFDE2:
	.4byte	.Lframe0
	.4byte	.LFB164
	.4byte	.LFE164-.LFB164
	.align	2
.LEFDE2:
.LSFDE4:
	.4byte	.LEFDE4-.LASFDE4
.LASFDE4:
	.4byte	.Lframe0
	.4byte	.LFB165
	.4byte	.LFE165-.LFB165
	.align	2
.LEFDE4:
.LSFDE6:
	.4byte	.LEFDE6-.LASFDE6
.LASFDE6:
	.4byte	.Lframe0
	.4byte	.LFB166
	.4byte	.LFE166-.LFB166
	.align	2
.LEFDE6:
.LSFDE8:
	.4byte	.LEFDE8-.LASFDE8
.LASFDE8:
	.4byte	.Lframe0
	.4byte	.LFB167
	.4byte	.LFE167-.LFB167
	.align	2
.LEFDE8:
.LSFDE10:
	.4byte	.LEFDE10-.LASFDE10
.LASFDE10:
	.4byte	.Lframe0
	.4byte	.LFB168
	.4byte	.LFE168-.LFB168
	.align	2
.LEFDE10:
.LSFDE12:
	.4byte	.LEFDE12-.LASFDE12
.LASFDE12:
	.4byte	.Lframe0
	.4byte	.LFB169
	.4byte	.LFE169-.LFB169
	.align	2
.LEFDE12:
.LSFDE14:
	.4byte	.LEFDE14-.LASFDE14
.LASFDE14:
	.4byte	.Lframe0
	.4byte	.LFB170
	.4byte	.LFE170-.LFB170
	.align	2
.LEFDE14:
.LSFDE16:
	.4byte	.LEFDE16-.LASFDE16
.LASFDE16:
	.4byte	.Lframe0
	.4byte	.LFB171
	.4byte	.LFE171-.LFB171
	.align	2
.LEFDE16:
.LSFDE18:
	.4byte	.LEFDE18-.LASFDE18
.LASFDE18:
	.4byte	.Lframe0
	.4byte	.LFB172
	.4byte	.LFE172-.LFB172
	.align	2
.LEFDE18:
.LSFDE20:
	.4byte	.LEFDE20-.LASFDE20
.LASFDE20:
	.4byte	.Lframe0
	.4byte	.LFB173
	.4byte	.LFE173-.LFB173
	.align	2
.LEFDE20:
.LSFDE22:
	.4byte	.LEFDE22-.LASFDE22
.LASFDE22:
	.4byte	.Lframe0
	.4byte	.LFB174
	.4byte	.LFE174-.LFB174
	.align	2
.LEFDE22:
.LSFDE24:
	.4byte	.LEFDE24-.LASFDE24
.LASFDE24:
	.4byte	.Lframe0
	.4byte	.LFB175
	.4byte	.LFE175-.LFB175
	.align	2
.LEFDE24:
.LSFDE26:
	.4byte	.LEFDE26-.LASFDE26
.LASFDE26:
	.4byte	.Lframe0
	.4byte	.LFB176
	.4byte	.LFE176-.LFB176
	.align	2
.LEFDE26:
.LSFDE28:
	.4byte	.LEFDE28-.LASFDE28
.LASFDE28:
	.4byte	.Lframe0
	.4byte	.LFB177
	.4byte	.LFE177-.LFB177
	.align	2
.LEFDE28:
.LSFDE30:
	.4byte	.LEFDE30-.LASFDE30
.LASFDE30:
	.4byte	.Lframe0
	.4byte	.LFB178
	.4byte	.LFE178-.LFB178
	.align	2
.LEFDE30:
.LSFDE32:
	.4byte	.LEFDE32-.LASFDE32
.LASFDE32:
	.4byte	.Lframe0
	.4byte	.LFB179
	.4byte	.LFE179-.LFB179
	.align	2
.LEFDE32:
.LSFDE34:
	.4byte	.LEFDE34-.LASFDE34
.LASFDE34:
	.4byte	.Lframe0
	.4byte	.LFB180
	.4byte	.LFE180-.LFB180
	.align	2
.LEFDE34:
.LSFDE36:
	.4byte	.LEFDE36-.LASFDE36
.LASFDE36:
	.4byte	.Lframe0
	.4byte	.LFB181
	.4byte	.LFE181-.LFB181
	.align	2
.LEFDE36:
.LSFDE38:
	.4byte	.LEFDE38-.LASFDE38
.LASFDE38:
	.4byte	.Lframe0
	.4byte	.LFB182
	.4byte	.LFE182-.LFB182
	.align	2
.LEFDE38:
.LSFDE40:
	.4byte	.LEFDE40-.LASFDE40
.LASFDE40:
	.4byte	.Lframe0
	.4byte	.LFB183
	.4byte	.LFE183-.LFB183
	.align	2
.LEFDE40:
.LSFDE42:
	.4byte	.LEFDE42-.LASFDE42
.LASFDE42:
	.4byte	.Lframe0
	.4byte	.LFB184
	.4byte	.LFE184-.LFB184
	.align	2
.LEFDE42:
.LSFDE44:
	.4byte	.LEFDE44-.LASFDE44
.LASFDE44:
	.4byte	.Lframe0
	.4byte	.LFB185
	.4byte	.LFE185-.LFB185
	.align	2
.LEFDE44:
.LSFDE46:
	.4byte	.LEFDE46-.LASFDE46
.LASFDE46:
	.4byte	.Lframe0
	.4byte	.LFB186
	.4byte	.LFE186-.LFB186
	.align	2
.LEFDE46:
.LSFDE48:
	.4byte	.LEFDE48-.LASFDE48
.LASFDE48:
	.4byte	.Lframe0
	.4byte	.LFB187
	.4byte	.LFE187-.LFB187
	.align	2
.LEFDE48:
.LSFDE50:
	.4byte	.LEFDE50-.LASFDE50
.LASFDE50:
	.4byte	.Lframe0
	.4byte	.LFB188
	.4byte	.LFE188-.LFB188
	.align	2
.LEFDE50:
.LSFDE52:
	.4byte	.LEFDE52-.LASFDE52
.LASFDE52:
	.4byte	.Lframe0
	.4byte	.LFB189
	.4byte	.LFE189-.LFB189
	.align	2
.LEFDE52:
.LSFDE54:
	.4byte	.LEFDE54-.LASFDE54
.LASFDE54:
	.4byte	.Lframe0
	.4byte	.LFB190
	.4byte	.LFE190-.LFB190
	.align	2
.LEFDE54:
.LSFDE56:
	.4byte	.LEFDE56-.LASFDE56
.LASFDE56:
	.4byte	.Lframe0
	.4byte	.LFB191
	.4byte	.LFE191-.LFB191
	.align	2
.LEFDE56:
.LSFDE58:
	.4byte	.LEFDE58-.LASFDE58
.LASFDE58:
	.4byte	.Lframe0
	.4byte	.LFB192
	.4byte	.LFE192-.LFB192
	.align	2
.LEFDE58:
.LSFDE60:
	.4byte	.LEFDE60-.LASFDE60
.LASFDE60:
	.4byte	.Lframe0
	.4byte	.LFB193
	.4byte	.LFE193-.LFB193
	.align	2
.LEFDE60:
.LSFDE62:
	.4byte	.LEFDE62-.LASFDE62
.LASFDE62:
	.4byte	.Lframe0
	.4byte	.LFB194
	.4byte	.LFE194-.LFB194
	.align	2
.LEFDE62:
.LSFDE64:
	.4byte	.LEFDE64-.LASFDE64
.LASFDE64:
	.4byte	.Lframe0
	.4byte	.LFB195
	.4byte	.LFE195-.LFB195
	.align	2
.LEFDE64:
.LSFDE66:
	.4byte	.LEFDE66-.LASFDE66
.LASFDE66:
	.4byte	.Lframe0
	.4byte	.LFB196
	.4byte	.LFE196-.LFB196
	.align	2
.LEFDE66:
.LSFDE68:
	.4byte	.LEFDE68-.LASFDE68
.LASFDE68:
	.4byte	.Lframe0
	.4byte	.LFB197
	.4byte	.LFE197-.LFB197
	.align	2
.LEFDE68:
.LSFDE70:
	.4byte	.LEFDE70-.LASFDE70
.LASFDE70:
	.4byte	.Lframe0
	.4byte	.LFB198
	.4byte	.LFE198-.LFB198
	.align	2
.LEFDE70:
.LSFDE72:
	.4byte	.LEFDE72-.LASFDE72
.LASFDE72:
	.4byte	.Lframe0
	.4byte	.LFB199
	.4byte	.LFE199-.LFB199
	.align	2
.LEFDE72:
.LSFDE74:
	.4byte	.LEFDE74-.LASFDE74
.LASFDE74:
	.4byte	.Lframe0
	.4byte	.LFB200
	.4byte	.LFE200-.LFB200
	.align	2
.LEFDE74:
.LSFDE76:
	.4byte	.LEFDE76-.LASFDE76
.LASFDE76:
	.4byte	.Lframe0
	.4byte	.LFB201
	.4byte	.LFE201-.LFB201
	.align	2
.LEFDE76:
.LSFDE78:
	.4byte	.LEFDE78-.LASFDE78
.LASFDE78:
	.4byte	.Lframe0
	.4byte	.LFB202
	.4byte	.LFE202-.LFB202
	.align	2
.LEFDE78:
.LSFDE80:
	.4byte	.LEFDE80-.LASFDE80
.LASFDE80:
	.4byte	.Lframe0
	.4byte	.LFB203
	.4byte	.LFE203-.LFB203
	.align	2
.LEFDE80:
.LSFDE82:
	.4byte	.LEFDE82-.LASFDE82
.LASFDE82:
	.4byte	.Lframe0
	.4byte	.LFB204
	.4byte	.LFE204-.LFB204
	.align	2
.LEFDE82:
.LSFDE84:
	.4byte	.LEFDE84-.LASFDE84
.LASFDE84:
	.4byte	.Lframe0
	.4byte	.LFB205
	.4byte	.LFE205-.LFB205
	.align	2
.LEFDE84:
.LSFDE86:
	.4byte	.LEFDE86-.LASFDE86
.LASFDE86:
	.4byte	.Lframe0
	.4byte	.LFB206
	.4byte	.LFE206-.LFB206
	.align	2
.LEFDE86:
.LSFDE88:
	.4byte	.LEFDE88-.LASFDE88
.LASFDE88:
	.4byte	.Lframe0
	.4byte	.LFB207
	.4byte	.LFE207-.LFB207
	.align	2
.LEFDE88:
.LSFDE90:
	.4byte	.LEFDE90-.LASFDE90
.LASFDE90:
	.4byte	.Lframe0
	.4byte	.LFB208
	.4byte	.LFE208-.LFB208
	.align	2
.LEFDE90:
.LSFDE92:
	.4byte	.LEFDE92-.LASFDE92
.LASFDE92:
	.4byte	.Lframe0
	.4byte	.LFB209
	.4byte	.LFE209-.LFB209
	.align	2
.LEFDE92:
.LSFDE94:
	.4byte	.LEFDE94-.LASFDE94
.LASFDE94:
	.4byte	.Lframe0
	.4byte	.LFB210
	.4byte	.LFE210-.LFB210
	.align	2
.LEFDE94:
.LSFDE96:
	.4byte	.LEFDE96-.LASFDE96
.LASFDE96:
	.4byte	.Lframe0
	.4byte	.LFB211
	.4byte	.LFE211-.LFB211
	.align	2
.LEFDE96:
.LSFDE98:
	.4byte	.LEFDE98-.LASFDE98
.LASFDE98:
	.4byte	.Lframe0
	.4byte	.LFB227
	.4byte	.LFE227-.LFB227
	.byte	0x4
	.4byte	.LCFI0-.LFB227
	.byte	0xe
	.uleb128 0x8
	.byte	0x4
	.4byte	.LCFI1-.LCFI0
	.byte	0xe
	.uleb128 0
	.align	2
.LEFDE98:
.LSFDE100:
	.4byte	.LEFDE100-.LASFDE100
.LASFDE100:
	.4byte	.Lframe0
	.4byte	.LFB244
	.4byte	.LFE244-.LFB244
	.byte	0x4
	.4byte	.LCFI2-.LFB244
	.byte	0xe
	.uleb128 0x4
	.byte	0x8e
	.uleb128 0x1
	.byte	0x4
	.4byte	.LCFI3-.LCFI2
	.byte	0xe
	.uleb128 0x18
	.byte	0x4
	.4byte	.LCFI4-.LCFI3
	.byte	0xe
	.uleb128 0x4
	.align	2
.LEFDE100:
.LSFDE102:
	.4byte	.LEFDE102-.LASFDE102
.LASFDE102:
	.4byte	.Lframe0
	.4byte	.LFB254
	.4byte	.LFE254-.LFB254
	.byte	0x4
	.4byte	.LCFI5-.LFB254
	.byte	0xe
	.uleb128 0x8
	.byte	0x4
	.4byte	.LCFI6-.LCFI5
	.byte	0xe
	.uleb128 0
	.align	2
.LEFDE102:
.LSFDE104:
	.4byte	.LEFDE104-.LASFDE104
.LASFDE104:
	.4byte	.Lframe0
	.4byte	.LFB273
	.4byte	.LFE273-.LFB273
	.byte	0x4
	.4byte	.LCFI7-.LFB273
	.byte	0xe
	.uleb128 0x8
	.byte	0x4
	.4byte	.LCFI8-.LCFI7
	.byte	0xe
	.uleb128 0
	.align	2
.LEFDE104:
.LSFDE106:
	.4byte	.LEFDE106-.LASFDE106
.LASFDE106:
	.4byte	.Lframe0
	.4byte	.LFB297
	.4byte	.LFE297-.LFB297
	.byte	0x4
	.4byte	.LCFI9-.LFB297
	.byte	0xe
	.uleb128 0x8
	.byte	0x84
	.uleb128 0x2
	.byte	0x8e
	.uleb128 0x1
	.byte	0x4
	.4byte	.LCFI10-.LCFI9
	.byte	0xe
	.uleb128 0x18
	.byte	0x4
	.4byte	.LCFI11-.LCFI10
	.byte	0xe
	.uleb128 0x8
	.align	2
.LEFDE106:
.LSFDE108:
	.4byte	.LEFDE108-.LASFDE108
.LASFDE108:
	.4byte	.Lframe0
	.4byte	.LFB298
	.4byte	.LFE298-.LFB298
	.byte	0x4
	.4byte	.LCFI12-.LFB298
	.byte	0xe
	.uleb128 0x4
	.byte	0x8e
	.uleb128 0x1
	.byte	0x4
	.4byte	.LCFI13-.LCFI12
	.byte	0xe
	.uleb128 0x18
	.byte	0x4
	.4byte	.LCFI14-.LCFI13
	.byte	0xe
	.uleb128 0x4
	.align	2
.LEFDE108:
.LSFDE110:
	.4byte	.LEFDE110-.LASFDE110
.LASFDE110:
	.4byte	.Lframe0
	.4byte	.LFB299
	.4byte	.LFE299-.LFB299
	.byte	0x4
	.4byte	.LCFI15-.LFB299
	.byte	0xe
	.uleb128 0x8
	.byte	0x84
	.uleb128 0x2
	.byte	0x8e
	.uleb128 0x1
	.byte	0x4
	.4byte	.LCFI16-.LCFI15
	.byte	0xe
	.uleb128 0x18
	.byte	0x4
	.4byte	.LCFI17-.LCFI16
	.byte	0xe
	.uleb128 0x8
	.align	2
.LEFDE110:
.LSFDE112:
	.4byte	.LEFDE112-.LASFDE112
.LASFDE112:
	.4byte	.Lframe0
	.4byte	.LFB300
	.4byte	.LFE300-.LFB300
	.byte	0x4
	.4byte	.LCFI18-.LFB300
	.byte	0xe
	.uleb128 0x4
	.byte	0x8e
	.uleb128 0x1
	.byte	0x4
	.4byte	.LCFI19-.LCFI18
	.byte	0xe
	.uleb128 0x18
	.byte	0x4
	.4byte	.LCFI20-.LCFI19
	.byte	0xe
	.uleb128 0x4
	.align	2
.LEFDE112:
.LSFDE114:
	.4byte	.LEFDE114-.LASFDE114
.LASFDE114:
	.4byte	.Lframe0
	.4byte	.LFB301
	.4byte	.LFE301-.LFB301
	.byte	0x4
	.4byte	.LCFI21-.LFB301
	.byte	0xe
	.uleb128 0x4
	.byte	0x8e
	.uleb128 0x1
	.byte	0x4
	.4byte	.LCFI22-.LCFI21
	.byte	0xe
	.uleb128 0x10
	.byte	0x4
	.4byte	.LCFI23-.LCFI22
	.byte	0xe
	.uleb128 0x4
	.align	2
.LEFDE114:
.LSFDE116:
	.4byte	.LEFDE116-.LASFDE116
.LASFDE116:
	.4byte	.Lframe0
	.4byte	.LFB302
	.4byte	.LFE302-.LFB302
	.byte	0x4
	.4byte	.LCFI24-.LFB302
	.byte	0xe
	.uleb128 0x4
	.byte	0x8e
	.uleb128 0x1
	.byte	0x4
	.4byte	.LCFI25-.LCFI24
	.byte	0xe
	.uleb128 0x10
	.byte	0x4
	.4byte	.LCFI26-.LCFI25
	.byte	0xe
	.uleb128 0x4
	.align	2
.LEFDE116:
.LSFDE118:
	.4byte	.LEFDE118-.LASFDE118
.LASFDE118:
	.4byte	.Lframe0
	.4byte	.LFB303
	.4byte	.LFE303-.LFB303
	.byte	0x4
	.4byte	.LCFI27-.LFB303
	.byte	0xe
	.uleb128 0x4
	.byte	0x8e
	.uleb128 0x1
	.byte	0x4
	.4byte	.LCFI28-.LCFI27
	.byte	0xe
	.uleb128 0x18
	.byte	0x4
	.4byte	.LCFI29-.LCFI28
	.byte	0xe
	.uleb128 0x4
	.align	2
.LEFDE118:
.LSFDE120:
	.4byte	.LEFDE120-.LASFDE120
.LASFDE120:
	.4byte	.Lframe0
	.4byte	.LFB304
	.4byte	.LFE304-.LFB304
	.byte	0x4
	.4byte	.LCFI30-.LFB304
	.byte	0xe
	.uleb128 0x14
	.byte	0x84
	.uleb128 0x5
	.byte	0x85
	.uleb128 0x4
	.byte	0x86
	.uleb128 0x3
	.byte	0x87
	.uleb128 0x2
	.byte	0x8e
	.uleb128 0x1
	.byte	0x4
	.4byte	.LCFI31-.LCFI30
	.byte	0xe
	.uleb128 0x28
	.byte	0x4
	.4byte	.LCFI32-.LCFI31
	.byte	0xe
	.uleb128 0x14
	.align	2
.LEFDE120:
.LSFDE122:
	.4byte	.LEFDE122-.LASFDE122
.LASFDE122:
	.4byte	.Lframe0
	.4byte	.LFB305
	.4byte	.LFE305-.LFB305
	.byte	0x4
	.4byte	.LCFI33-.LFB305
	.byte	0xe
	.uleb128 0x8
	.byte	0x83
	.uleb128 0x2
	.byte	0x8e
	.uleb128 0x1
	.align	2
.LEFDE122:
.LSFDE124:
	.4byte	.LEFDE124-.LASFDE124
.LASFDE124:
	.4byte	.Lframe0
	.4byte	.LFB306
	.4byte	.LFE306-.LFB306
	.byte	0x4
	.4byte	.LCFI34-.LFB306
	.byte	0xe
	.uleb128 0x4
	.byte	0x8e
	.uleb128 0x1
	.byte	0x4
	.4byte	.LCFI35-.LCFI34
	.byte	0xe
	.uleb128 0x20
	.byte	0x4
	.4byte	.LCFI36-.LCFI35
	.byte	0xe
	.uleb128 0x4
	.align	2
.LEFDE124:
.LSFDE126:
	.4byte	.LEFDE126-.LASFDE126
.LASFDE126:
	.4byte	.Lframe0
	.4byte	.LFB307
	.4byte	.LFE307-.LFB307
	.byte	0x4
	.4byte	.LCFI37-.LFB307
	.byte	0xe
	.uleb128 0x4
	.byte	0x8e
	.uleb128 0x1
	.byte	0x4
	.4byte	.LCFI38-.LCFI37
	.byte	0xe
	.uleb128 0x20
	.byte	0x4
	.4byte	.LCFI39-.LCFI38
	.byte	0xe
	.uleb128 0x4
	.align	2
.LEFDE126:
	.text
.Letext0:
	.file 6 "/usr/share/segger_embedded_studio_for_arm_5.62/include/stdint.h"
	.file 7 "../../../nRF5_SDK_17.0.2_d674dde/modules/nrfx/mdk/nrf52840.h"
	.file 8 "../common/include/simple_hal.h"
	.file 9 "../../../nRF5_SDK_17.0.2_d674dde/components/libraries/timer/app_timer.h"
	.file 10 "../../../nRF5_SDK_17.0.2_d674dde/modules/nrfx/hal/nrf_gpiote.h"
	.file 11 "../../../nRF5_SDK_17.0.2_d674dde/modules/nrfx/drivers/include/nrfx_gpiote.h"