	.cpu cortex-m4
	.eabi_attribute 27, 1
	.eabi_attribute 28, 1
	.eabi_attribute 20, 1
	.eabi_attribute 21, 1
	.eabi_attribute 23, 3
	.eabi_attribute 24, 1
	.eabi_attribute 25, 1
	.eabi_attribute 26, 1
	.eabi_attribute 30, 6
	.eabi_attribute 34, 1
	.eabi_attribute 18, 4
	.file	"spis.c"
	.text
.Ltext0:
	.section	.text.sd_mbr_command,"ax",%progbits
	.align	1
	.syntax unified
	.thumb
	.thumb_func
	.fpu fpv4-sp-d16
	.type	sd_mbr_command, %function
sd_mbr_command:
.LFB138:
	.file 1 "../../../nRF5_SDK_17.0.2_d674dde/components/softdevice/s140/headers/nrf52/nrf_mbr.h"
	.loc 1 257 1
	@ Naked Function: prologue and epilogue provided by programmer.
	@ args = 0, pretend = 0, frame = 0
	@ frame_needed = 0, uses_anonymous_args = 0
	.loc 1 257 1
	.syntax unified
@ 257 "../../../nRF5_SDK_17.0.2_d674dde/components/softdevice/s140/headers/nrf52/nrf_mbr.h" 1
	svc #24
bx r14
@ 0 "" 2
	.thumb
	.syntax unified
	nop
	mov	r0, r3
.LFE138:
	.size	sd_mbr_command, .-sd_mbr_command
	.section	.text.sd_mutex_new,"ax",%progbits
	.align	1
	.syntax unified
	.thumb
	.thumb_func
	.fpu fpv4-sp-d16
	.type	sd_mutex_new, %function
sd_mutex_new:
.LFB164:
	.file 2 "../../../nRF5_SDK_17.0.2_d674dde/components/softdevice/s140/headers/nrf_soc.h"
	.loc 2 452 1
	@ Naked Function: prologue and epilogue provided by programmer.
	@ args = 0, pretend = 0, frame = 0
	@ frame_needed = 0, uses_anonymous_args = 0
	.loc 2 452 1
	.syntax unified
@ 452 "../../../nRF5_SDK_17.0.2_d674dde/components/softdevice/s140/headers/nrf_soc.h" 1
	svc #44
bx r14
@ 0 "" 2
	.thumb
	.syntax unified
	nop
	mov	r0, r3
.LFE164:
	.size	sd_mutex_new, .-sd_mutex_new
	.section	.text.sd_mutex_acquire,"ax",%progbits
	.align	1
	.syntax unified
	.thumb
	.thumb_func
	.fpu fpv4-sp-d16
	.type	sd_mutex_acquire, %function
sd_mutex_acquire:
.LFB165:
	.loc 2 461 1
	@ Naked Function: prologue and epilogue provided by programmer.
	@ args = 0, pretend = 0, frame = 0
	@ frame_needed = 0, uses_anonymous_args = 0
	.loc 2 461 1
	.syntax unified
@ 461 "../../../nRF5_SDK_17.0.2_d674dde/components/softdevice/s140/headers/nrf_soc.h" 1
	svc #45
bx r14
@ 0 "" 2
	.thumb
	.syntax unified
	nop
	mov	r0, r3
.LFE165:
	.size	sd_mutex_acquire, .-sd_mutex_acquire
	.section	.text.sd_mutex_release,"ax",%progbits
	.align	1
	.syntax unified
	.thumb
	.thumb_func
	.fpu fpv4-sp-d16
	.type	sd_mutex_release, %function
sd_mutex_release:
.LFB166:
	.loc 2 469 1
	@ Naked Function: prologue and epilogue provided by programmer.
	@ args = 0, pretend = 0, frame = 0
	@ frame_needed = 0, uses_anonymous_args = 0
	.loc 2 469 1
	.syntax unified
@ 469 "../../../nRF5_SDK_17.0.2_d674dde/components/softdevice/s140/headers/nrf_soc.h" 1
	svc #46
bx r14
@ 0 "" 2
	.thumb
	.syntax unified
	nop
	mov	r0, r3
.LFE166:
	.size	sd_mutex_release, .-sd_mutex_release
	.section	.text.sd_rand_application_pool_capacity_get,"ax",%progbits
	.align	1
	.syntax unified
	.thumb
	.thumb_func
	.fpu fpv4-sp-d16
	.type	sd_rand_application_pool_capacity_get, %function
sd_rand_application_pool_capacity_get:
.LFB167:
	.loc 2 477 1
	@ Naked Function: prologue and epilogue provided by programmer.
	@ args = 0, pretend = 0, frame = 0
	@ frame_needed = 0, uses_anonymous_args = 0
	.loc 2 477 1
	.syntax unified
@ 477 "../../../nRF5_SDK_17.0.2_d674dde/components/softdevice/s140/headers/nrf_soc.h" 1
	svc #47
bx r14
@ 0 "" 2
	.thumb
	.syntax unified
	nop
	mov	r0, r3
.LFE167:
	.size	sd_rand_application_pool_capacity_get, .-sd_rand_application_pool_capacity_get
	.section	.text.sd_rand_application_bytes_available_get,"ax",%progbits
	.align	1
	.syntax unified
	.thumb
	.thumb_func
	.fpu fpv4-sp-d16
	.type	sd_rand_application_bytes_available_get, %function
sd_rand_application_bytes_available_get:
.LFB168:
	.loc 2 485 1
	@ Naked Function: prologue and epilogue provided by programmer.
	@ args = 0, pretend = 0, frame = 0
	@ frame_needed = 0, uses_anonymous_args = 0
	.loc 2 485 1
	.syntax unified
@ 485 "../../../nRF5_SDK_17.0.2_d674dde/components/softdevice/s140/headers/nrf_soc.h" 1
	svc #48
bx r14
@ 0 "" 2
	.thumb
	.syntax unified
	nop
	mov	r0, r3
.LFE168:
	.size	sd_rand_application_bytes_available_get, .-sd_rand_application_bytes_available_get
	.section	.text.sd_rand_application_vector_get,"ax",%progbits
	.align	1
	.syntax unified
	.thumb
	.thumb_func
	.fpu fpv4-sp-d16
	.type	sd_rand_application_vector_get, %function
sd_rand_application_vector_get:
.LFB169:
	.loc 2 495 1
	@ Naked Function: prologue and epilogue provided by programmer.
	@ args = 0, pretend = 0, frame = 0
	@ frame_needed = 0, uses_anonymous_args = 0
	.loc 2 495 1
	.syntax unified
@ 495 "../../../nRF5_SDK_17.0.2_d674dde/components/softdevice/s140/headers/nrf_soc.h" 1
	svc #49
bx r14
@ 0 "" 2
	.thumb
	.syntax unified
	nop
	mov	r0, r3
.LFE169:
	.size	sd_rand_application_vector_get, .-sd_rand_application_vector_get
	.section	.text.sd_power_reset_reason_get,"ax",%progbits
	.align	1
	.syntax unified
	.thumb
	.thumb_func
	.fpu fpv4-sp-d16
	.type	sd_power_reset_reason_get, %function
sd_power_reset_reason_get:
.LFB170:
	.loc 2 503 1
	@ Naked Function: prologue and epilogue provided by programmer.
	@ args = 0, pretend = 0, frame = 0
	@ frame_needed = 0, uses_anonymous_args = 0
	.loc 2 503 1
	.syntax unified
@ 503 "../../../nRF5_SDK_17.0.2_d674dde/components/softdevice/s140/headers/nrf_soc.h" 1
	svc #52
bx r14
@ 0 "" 2
	.thumb
	.syntax unified
	nop
	mov	r0, r3
.LFE170:
	.size	sd_power_reset_reason_get, .-sd_power_reset_reason_get
	.section	.text.sd_power_reset_reason_clr,"ax",%progbits
	.align	1
	.syntax unified
	.thumb
	.thumb_func
	.fpu fpv4-sp-d16
	.type	sd_power_reset_reason_clr, %function
sd_power_reset_reason_clr:
.LFB171:
	.loc 2 511 1
	@ Naked Function: prologue and epilogue provided by programmer.
	@ args = 0, pretend = 0, frame = 0
	@ frame_needed = 0, uses_anonymous_args = 0
	.loc 2 511 1
	.syntax unified
@ 511 "../../../nRF5_SDK_17.0.2_d674dde/components/softdevice/s140/headers/nrf_soc.h" 1
	svc #53
bx r14
@ 0 "" 2
	.thumb
	.syntax unified
	nop
	mov	r0, r3
.LFE171:
	.size	sd_power_reset_reason_clr, .-sd_power_reset_reason_clr
	.section	.text.sd_power_mode_set,"ax",%progbits
	.align	1
	.syntax unified
	.thumb
	.thumb_func
	.fpu fpv4-sp-d16
	.type	sd_power_mode_set, %function
sd_power_mode_set:
.LFB172:
	.loc 2 520 1
	@ Naked Function: prologue and epilogue provided by programmer.
	@ args = 0, pretend = 0, frame = 0
	@ frame_needed = 0, uses_anonymous_args = 0
	.loc 2 520 1
	.syntax unified
@ 520 "../../../nRF5_SDK_17.0.2_d674dde/components/softdevice/s140/headers/nrf_soc.h" 1
	svc #50
bx r14
@ 0 "" 2
	.thumb
	.syntax unified
	nop
	mov	r0, r3
.LFE172:
	.size	sd_power_mode_set, .-sd_power_mode_set
	.section	.text.sd_power_system_off,"ax",%progbits
	.align	1
	.syntax unified
	.thumb
	.thumb_func
	.fpu fpv4-sp-d16
	.type	sd_power_system_off, %function
sd_power_system_off:
.LFB173:
	.loc 2 526 1
	@ Naked Function: prologue and epilogue provided by programmer.
	@ args = 0, pretend = 0, frame = 0
	@ frame_needed = 0, uses_anonymous_args = 0
	.loc 2 526 1
	.syntax unified
@ 526 "../../../nRF5_SDK_17.0.2_d674dde/components/softdevice/s140/headers/nrf_soc.h" 1
	svc #51
bx r14
@ 0 "" 2
	.thumb
	.syntax unified
	nop
	mov	r0, r3
.LFE173:
	.size	sd_power_system_off, .-sd_power_system_off
	.section	.text.sd_power_pof_enable,"ax",%progbits
	.align	1
	.syntax unified
	.thumb
	.thumb_func
	.fpu fpv4-sp-d16
	.type	sd_power_pof_enable, %function
sd_power_pof_enable:
.LFB174:
	.loc 2 537 1
	@ Naked Function: prologue and epilogue provided by programmer.
	@ args = 0, pretend = 0, frame = 0
	@ frame_needed = 0, uses_anonymous_args = 0
	.loc 2 537 1
	.syntax unified
@ 537 "../../../nRF5_SDK_17.0.2_d674dde/components/softdevice/s140/headers/nrf_soc.h" 1
	svc #54
bx r14
@ 0 "" 2
	.thumb
	.syntax unified
	nop
	mov	r0, r3
.LFE174:
	.size	sd_power_pof_enable, .-sd_power_pof_enable
	.section	.text.sd_power_usbpwrrdy_enable,"ax",%progbits
	.align	1
	.syntax unified
	.thumb
	.thumb_func
	.fpu fpv4-sp-d16
	.type	sd_power_usbpwrrdy_enable, %function
sd_power_usbpwrrdy_enable:
.LFB175:
	.loc 2 550 1
	@ Naked Function: prologue and epilogue provided by programmer.
	@ args = 0, pretend = 0, frame = 0
	@ frame_needed = 0, uses_anonymous_args = 0
	.loc 2 550 1
	.syntax unified
@ 550 "../../../nRF5_SDK_17.0.2_d674dde/components/softdevice/s140/headers/nrf_soc.h" 1
	svc #77
bx r14
@ 0 "" 2
	.thumb
	.syntax unified
	nop
	mov	r0, r3
.LFE175:
	.size	sd_power_usbpwrrdy_enable, .-sd_power_usbpwrrdy_enable
	.section	.text.sd_power_usbdetected_enable,"ax",%progbits
	.align	1
	.syntax unified
	.thumb
	.thumb_func
	.fpu fpv4-sp-d16
	.type	sd_power_usbdetected_enable, %function
sd_power_usbdetected_enable:
.LFB176:
	.loc 2 563 1
	@ Naked Function: prologue and epilogue provided by programmer.
	@ args = 0, pretend = 0, frame = 0
	@ frame_needed = 0, uses_anonymous_args = 0
	.loc 2 563 1
	.syntax unified
@ 563 "../../../nRF5_SDK_17.0.2_d674dde/components/softdevice/s140/headers/nrf_soc.h" 1
	svc #78
bx r14
@ 0 "" 2
	.thumb
	.syntax unified
	nop
	mov	r0, r3
.LFE176:
	.size	sd_power_usbdetected_enable, .-sd_power_usbdetected_enable
	.section	.text.sd_power_usbremoved_enable,"ax",%progbits
	.align	1
	.syntax unified
	.thumb
	.thumb_func
	.fpu fpv4-sp-d16
	.type	sd_power_usbremoved_enable, %function
sd_power_usbremoved_enable:
.LFB177:
	.loc 2 576 1
	@ Naked Function: prologue and epilogue provided by programmer.
	@ args = 0, pretend = 0, frame = 0
	@ frame_needed = 0, uses_anonymous_args = 0
	.loc 2 576 1
	.syntax unified
@ 576 "../../../nRF5_SDK_17.0.2_d674dde/components/softdevice/s140/headers/nrf_soc.h" 1
	svc #79
bx r14
@ 0 "" 2
	.thumb
	.syntax unified
	nop
	mov	r0, r3
.LFE177:
	.size	sd_power_usbremoved_enable, .-sd_power_usbremoved_enable
	.section	.text.sd_power_usbregstatus_get,"ax",%progbits
	.align	1
	.syntax unified
	.thumb
	.thumb_func
	.fpu fpv4-sp-d16
	.type	sd_power_usbregstatus_get, %function
sd_power_usbregstatus_get:
.LFB178:
	.loc 2 586 1
	@ Naked Function: prologue and epilogue provided by programmer.
	@ args = 0, pretend = 0, frame = 0
	@ frame_needed = 0, uses_anonymous_args = 0
	.loc 2 586 1
	.syntax unified
@ 586 "../../../nRF5_SDK_17.0.2_d674dde/components/softdevice/s140/headers/nrf_soc.h" 1
	svc #80
bx r14
@ 0 "" 2
	.thumb
	.syntax unified
	nop
	mov	r0, r3
.LFE178:
	.size	sd_power_usbregstatus_get, .-sd_power_usbregstatus_get
	.section	.text.sd_power_pof_threshold_set,"ax",%progbits
	.align	1
	.syntax unified
	.thumb
	.thumb_func
	.fpu fpv4-sp-d16
	.type	sd_power_pof_threshold_set, %function
sd_power_pof_threshold_set:
.LFB179:
	.loc 2 599 1
	@ Naked Function: prologue and epilogue provided by programmer.
	@ args = 0, pretend = 0, frame = 0
	@ frame_needed = 0, uses_anonymous_args = 0
	.loc 2 599 1
	.syntax unified
@ 599 "../../../nRF5_SDK_17.0.2_d674dde/components/softdevice/s140/headers/nrf_soc.h" 1
	svc #55
bx r14
@ 0 "" 2
	.thumb
	.syntax unified
	nop
	mov	r0, r3
.LFE179:
	.size	sd_power_pof_threshold_set, .-sd_power_pof_threshold_set
	.section	.text.sd_power_pof_thresholdvddh_set,"ax",%progbits
	.align	1
	.syntax unified
	.thumb
	.thumb_func
	.fpu fpv4-sp-d16
	.type	sd_power_pof_thresholdvddh_set, %function
sd_power_pof_thresholdvddh_set:
.LFB180:
	.loc 2 612 1
	@ Naked Function: prologue and epilogue provided by programmer.
	@ args = 0, pretend = 0, frame = 0
	@ frame_needed = 0, uses_anonymous_args = 0
	.loc 2 612 1
	.syntax unified
@ 612 "../../../nRF5_SDK_17.0.2_d674dde/components/softdevice/s140/headers/nrf_soc.h" 1
	svc #56
bx r14
@ 0 "" 2
	.thumb
	.syntax unified
	nop
	mov	r0, r3
.LFE180:
	.size	sd_power_pof_thresholdvddh_set, .-sd_power_pof_thresholdvddh_set
	.section	.text.sd_power_ram_power_set,"ax",%progbits
	.align	1
	.syntax unified
	.thumb
	.thumb_func
	.fpu fpv4-sp-d16
	.type	sd_power_ram_power_set, %function
sd_power_ram_power_set:
.LFB181:
	.loc 2 621 1
	@ Naked Function: prologue and epilogue provided by programmer.
	@ args = 0, pretend = 0, frame = 0
	@ frame_needed = 0, uses_anonymous_args = 0
	.loc 2 621 1
	.syntax unified
@ 621 "../../../nRF5_SDK_17.0.2_d674dde/components/softdevice/s140/headers/nrf_soc.h" 1
	svc #57
bx r14
@ 0 "" 2
	.thumb
	.syntax unified
	nop
	mov	r0, r3
.LFE181:
	.size	sd_power_ram_power_set, .-sd_power_ram_power_set
	.section	.text.sd_power_ram_power_clr,"ax",%progbits
	.align	1
	.syntax unified
	.thumb
	.thumb_func
	.fpu fpv4-sp-d16
	.type	sd_power_ram_power_clr, %function
sd_power_ram_power_clr:
.LFB182:
	.loc 2 630 1
	@ Naked Function: prologue and epilogue provided by programmer.
	@ args = 0, pretend = 0, frame = 0
	@ frame_needed = 0, uses_anonymous_args = 0
	.loc 2 630 1
	.syntax unified
@ 630 "../../../nRF5_SDK_17.0.2_d674dde/components/softdevice/s140/headers/nrf_soc.h" 1
	svc #58
bx r14
@ 0 "" 2
	.thumb
	.syntax unified
	nop
	mov	r0, r3
.LFE182:
	.size	sd_power_ram_power_clr, .-sd_power_ram_power_clr
	.section	.text.sd_power_ram_power_get,"ax",%progbits
	.align	1
	.syntax unified
	.thumb
	.thumb_func
	.fpu fpv4-sp-d16
	.type	sd_power_ram_power_get, %function
sd_power_ram_power_get:
.LFB183:
	.loc 2 639 1
	@ Naked Function: prologue and epilogue provided by programmer.
	@ args = 0, pretend = 0, frame = 0
	@ frame_needed = 0, uses_anonymous_args = 0
	.loc 2 639 1
	.syntax unified
@ 639 "../../../nRF5_SDK_17.0.2_d674dde/components/softdevice/s140/headers/nrf_soc.h" 1
	svc #59
bx r14
@ 0 "" 2
	.thumb
	.syntax unified
	nop
	mov	r0, r3
.LFE183:
	.size	sd_power_ram_power_get, .-sd_power_ram_power_get
	.section	.text.sd_power_gpregret_set,"ax",%progbits
	.align	1
	.syntax unified
	.thumb
	.thumb_func
	.fpu fpv4-sp-d16
	.type	sd_power_gpregret_set, %function
sd_power_gpregret_set:
.LFB184:
	.loc 2 648 1
	@ Naked Function: prologue and epilogue provided by programmer.
	@ args = 0, pretend = 0, frame = 0
	@ frame_needed = 0, uses_anonymous_args = 0
	.loc 2 648 1
	.syntax unified
@ 648 "../../../nRF5_SDK_17.0.2_d674dde/components/softdevice/s140/headers/nrf_soc.h" 1
	svc #60
bx r14
@ 0 "" 2
	.thumb
	.syntax unified
	nop
	mov	r0, r3
.LFE184:
	.size	sd_power_gpregret_set, .-sd_power_gpregret_set
	.section	.text.sd_power_gpregret_clr,"ax",%progbits
	.align	1
	.syntax unified
	.thumb
	.thumb_func
	.fpu fpv4-sp-d16
	.type	sd_power_gpregret_clr, %function
sd_power_gpregret_clr:
.LFB185:
	.loc 2 657 1
	@ Naked Function: prologue and epilogue provided by programmer.
	@ args = 0, pretend = 0, frame = 0
	@ frame_needed = 0, uses_anonymous_args = 0
	.loc 2 657 1
	.syntax unified
@ 657 "../../../nRF5_SDK_17.0.2_d674dde/components/softdevice/s140/headers/nrf_soc.h" 1
	svc #61
bx r14
@ 0 "" 2
	.thumb
	.syntax unified
	nop
	mov	r0, r3
.LFE185:
	.size	sd_power_gpregret_clr, .-sd_power_gpregret_clr
	.section	.text.sd_power_gpregret_get,"ax",%progbits
	.align	1
	.syntax unified
	.thumb
	.thumb_func
	.fpu fpv4-sp-d16
	.type	sd_power_gpregret_get, %function
sd_power_gpregret_get:
.LFB186:
	.loc 2 666 1
	@ Naked Function: prologue and epilogue provided by programmer.
	@ args = 0, pretend = 0, frame = 0
	@ frame_needed = 0, uses_anonymous_args = 0
	.loc 2 666 1
	.syntax unified
@ 666 "../../../nRF5_SDK_17.0.2_d674dde/components/softdevice/s140/headers/nrf_soc.h" 1
	svc #62
bx r14
@ 0 "" 2
	.thumb
	.syntax unified
	nop
	mov	r0, r3
.LFE186:
	.size	sd_power_gpregret_get, .-sd_power_gpregret_get
	.section	.text.sd_power_dcdc_mode_set,"ax",%progbits
	.align	1
	.syntax unified
	.thumb
	.thumb_func
	.fpu fpv4-sp-d16
	.type	sd_power_dcdc_mode_set, %function
sd_power_dcdc_mode_set:
.LFB187:
	.loc 2 675 1
	@ Naked Function: prologue and epilogue provided by programmer.
	@ args = 0, pretend = 0, frame = 0
	@ frame_needed = 0, uses_anonymous_args = 0
	.loc 2 675 1
	.syntax unified
@ 675 "../../../nRF5_SDK_17.0.2_d674dde/components/softdevice/s140/headers/nrf_soc.h" 1
	svc #63
bx r14
@ 0 "" 2
	.thumb
	.syntax unified
	nop
	mov	r0, r3
.LFE187:
	.size	sd_power_dcdc_mode_set, .-sd_power_dcdc_mode_set
	.section	.text.sd_power_dcdc0_mode_set,"ax",%progbits
	.align	1
	.syntax unified
	.thumb
	.thumb_func
	.fpu fpv4-sp-d16
	.type	sd_power_dcdc0_mode_set, %function
sd_power_dcdc0_mode_set:
.LFB188:
	.loc 2 686 1
	@ Naked Function: prologue and epilogue provided by programmer.
	@ args = 0, pretend = 0, frame = 0
	@ frame_needed = 0, uses_anonymous_args = 0
	.loc 2 686 1
	.syntax unified
@ 686 "../../../nRF5_SDK_17.0.2_d674dde/components/softdevice/s140/headers/nrf_soc.h" 1
	svc #64
bx r14
@ 0 "" 2
	.thumb
	.syntax unified
	nop
	mov	r0, r3
.LFE188:
	.size	sd_power_dcdc0_mode_set, .-sd_power_dcdc0_mode_set
	.section	.text.sd_clock_hfclk_request,"ax",%progbits
	.align	1
	.syntax unified
	.thumb
	.thumb_func
	.fpu fpv4-sp-d16
	.type	sd_clock_hfclk_request, %function
sd_clock_hfclk_request:
.LFB189:
	.loc 2 698 1
	@ Naked Function: prologue and epilogue provided by programmer.
	@ args = 0, pretend = 0, frame = 0
	@ frame_needed = 0, uses_anonymous_args = 0
	.loc 2 698 1
	.syntax unified
@ 698 "../../../nRF5_SDK_17.0.2_d674dde/components/softdevice/s140/headers/nrf_soc.h" 1
	svc #66
bx r14
@ 0 "" 2
	.thumb
	.syntax unified
	nop
	mov	r0, r3
.LFE189:
	.size	sd_clock_hfclk_request, .-sd_clock_hfclk_request
	.section	.text.sd_clock_hfclk_release,"ax",%progbits
	.align	1
	.syntax unified
	.thumb
	.thumb_func
	.fpu fpv4-sp-d16
	.type	sd_clock_hfclk_release, %function
sd_clock_hfclk_release:
.LFB190:
	.loc 2 709 1
	@ Naked Function: prologue and epilogue provided by programmer.
	@ args = 0, pretend = 0, frame = 0
	@ frame_needed = 0, uses_anonymous_args = 0
	.loc 2 709 1
	.syntax unified
@ 709 "../../../nRF5_SDK_17.0.2_d674dde/components/softdevice/s140/headers/nrf_soc.h" 1
	svc #67
bx r14
@ 0 "" 2
	.thumb
	.syntax unified
	nop
	mov	r0, r3
.LFE190:
	.size	sd_clock_hfclk_release, .-sd_clock_hfclk_release
	.section	.text.sd_clock_hfclk_is_running,"ax",%progbits
	.align	1
	.syntax unified
	.thumb
	.thumb_func
	.fpu fpv4-sp-d16
	.type	sd_clock_hfclk_is_running, %function
sd_clock_hfclk_is_running:
.LFB191:
	.loc 2 720 1
	@ Naked Function: prologue and epilogue provided by programmer.
	@ args = 0, pretend = 0, frame = 0
	@ frame_needed = 0, uses_anonymous_args = 0
	.loc 2 720 1
	.syntax unified
@ 720 "../../../nRF5_SDK_17.0.2_d674dde/components/softdevice/s140/headers/nrf_soc.h" 1
	svc #68
bx r14
@ 0 "" 2
	.thumb
	.syntax unified
	nop
	mov	r0, r3
.LFE191:
	.size	sd_clock_hfclk_is_running, .-sd_clock_hfclk_is_running
	.section	.text.sd_app_evt_wait,"ax",%progbits
	.align	1
	.syntax unified
	.thumb
	.thumb_func
	.fpu fpv4-sp-d16
	.type	sd_app_evt_wait, %function
sd_app_evt_wait:
.LFB192:
	.loc 2 748 1
	@ Naked Function: prologue and epilogue provided by programmer.
	@ args = 0, pretend = 0, frame = 0
	@ frame_needed = 0, uses_anonymous_args = 0
	.loc 2 748 1
	.syntax unified
@ 748 "../../../nRF5_SDK_17.0.2_d674dde/components/softdevice/s140/headers/nrf_soc.h" 1
	svc #65
bx r14
@ 0 "" 2
	.thumb
	.syntax unified
	nop
	mov	r0, r3
.LFE192:
	.size	sd_app_evt_wait, .-sd_app_evt_wait
	.section	.text.sd_ppi_channel_enable_get,"ax",%progbits
	.align	1
	.syntax unified
	.thumb
	.thumb_func
	.fpu fpv4-sp-d16
	.type	sd_ppi_channel_enable_get, %function
sd_ppi_channel_enable_get:
.LFB193:
	.loc 2 756 1
	@ Naked Function: prologue and epilogue provided by programmer.
	@ args = 0, pretend = 0, frame = 0
	@ frame_needed = 0, uses_anonymous_args = 0
	.loc 2 756 1
	.syntax unified
@ 756 "../../../nRF5_SDK_17.0.2_d674dde/components/softdevice/s140/headers/nrf_soc.h" 1
	svc #32
bx r14
@ 0 "" 2
	.thumb
	.syntax unified
	nop
	mov	r0, r3
.LFE193:
	.size	sd_ppi_channel_enable_get, .-sd_ppi_channel_enable_get
	.section	.text.sd_ppi_channel_enable_set,"ax",%progbits
	.align	1
	.syntax unified
	.thumb
	.thumb_func
	.fpu fpv4-sp-d16
	.type	sd_ppi_channel_enable_set, %function
sd_ppi_channel_enable_set:
.LFB194:
	.loc 2 764 1
	@ Naked Function: prologue and epilogue provided by programmer.
	@ args = 0, pretend = 0, frame = 0
	@ frame_needed = 0, uses_anonymous_args = 0
	.loc 2 764 1
	.syntax unified
@ 764 "../../../nRF5_SDK_17.0.2_d674dde/components/softdevice/s140/headers/nrf_soc.h" 1
	svc #33
bx r14
@ 0 "" 2
	.thumb
	.syntax unified
	nop
	mov	r0, r3
.LFE194:
	.size	sd_ppi_channel_enable_set, .-sd_ppi_channel_enable_set
	.section	.text.sd_ppi_channel_enable_clr,"ax",%progbits
	.align	1
	.syntax unified
	.thumb
	.thumb_func
	.fpu fpv4-sp-d16
	.type	sd_ppi_channel_enable_clr, %function
sd_ppi_channel_enable_clr:
.LFB195:
	.loc 2 772 1
	@ Naked Function: prologue and epilogue provided by programmer.
	@ args = 0, pretend = 0, frame = 0
	@ frame_needed = 0, uses_anonymous_args = 0
	.loc 2 772 1
	.syntax unified
@ 772 "../../../nRF5_SDK_17.0.2_d674dde/components/softdevice/s140/headers/nrf_soc.h" 1
	svc #34
bx r14
@ 0 "" 2
	.thumb
	.syntax unified
	nop
	mov	r0, r3
.LFE195:
	.size	sd_ppi_channel_enable_clr, .-sd_ppi_channel_enable_clr
	.section	.text.sd_ppi_channel_assign,"ax",%progbits
	.align	1
	.syntax unified
	.thumb
	.thumb_func
	.fpu fpv4-sp-d16
	.type	sd_ppi_channel_assign, %function
sd_ppi_channel_assign:
.LFB196:
	.loc 2 783 1
	@ Naked Function: prologue and epilogue provided by programmer.
	@ args = 0, pretend = 0, frame = 0
	@ frame_needed = 0, uses_anonymous_args = 0
	.loc 2 783 1
	.syntax unified
@ 783 "../../../nRF5_SDK_17.0.2_d674dde/components/softdevice/s140/headers/nrf_soc.h" 1
	svc #35
bx r14
@ 0 "" 2
	.thumb
	.syntax unified
	nop
	mov	r0, r3
.LFE196:
	.size	sd_ppi_channel_assign, .-sd_ppi_channel_assign
	.section	.text.sd_ppi_group_task_enable,"ax",%progbits
	.align	1
	.syntax unified
	.thumb
	.thumb_func
	.fpu fpv4-sp-d16
	.type	sd_ppi_group_task_enable, %function
sd_ppi_group_task_enable:
.LFB197:
	.loc 2 792 1
	@ Naked Function: prologue and epilogue provided by programmer.
	@ args = 0, pretend = 0, frame = 0
	@ frame_needed = 0, uses_anonymous_args = 0
	.loc 2 792 1
	.syntax unified
@ 792 "../../../nRF5_SDK_17.0.2_d674dde/components/softdevice/s140/headers/nrf_soc.h" 1
	svc #36
bx r14
@ 0 "" 2
	.thumb
	.syntax unified
	nop
	mov	r0, r3
.LFE197:
	.size	sd_ppi_group_task_enable, .-sd_ppi_group_task_enable
	.section	.text.sd_ppi_group_task_disable,"ax",%progbits
	.align	1
	.syntax unified
	.thumb
	.thumb_func
	.fpu fpv4-sp-d16
	.type	sd_ppi_group_task_disable, %function
sd_ppi_group_task_disable:
.LFB198:
	.loc 2 801 1
	@ Naked Function: prologue and epilogue provided by programmer.
	@ args = 0, pretend = 0, frame = 0
	@ frame_needed = 0, uses_anonymous_args = 0
	.loc 2 801 1
	.syntax unified
@ 801 "../../../nRF5_SDK_17.0.2_d674dde/components/softdevice/s140/headers/nrf_soc.h" 1
	svc #37
bx r14
@ 0 "" 2
	.thumb
	.syntax unified
	nop
	mov	r0, r3
.LFE198:
	.size	sd_ppi_group_task_disable, .-sd_ppi_group_task_disable
	.section	.text.sd_ppi_group_assign,"ax",%progbits
	.align	1
	.syntax unified
	.thumb
	.thumb_func
	.fpu fpv4-sp-d16
	.type	sd_ppi_group_assign, %function
sd_ppi_group_assign:
.LFB199:
	.loc 2 811 1
	@ Naked Function: prologue and epilogue provided by programmer.
	@ args = 0, pretend = 0, frame = 0
	@ frame_needed = 0, uses_anonymous_args = 0
	.loc 2 811 1
	.syntax unified
@ 811 "../../../nRF5_SDK_17.0.2_d674dde/components/softdevice/s140/headers/nrf_soc.h" 1
	svc #38
bx r14
@ 0 "" 2
	.thumb
	.syntax unified
	nop
	mov	r0, r3
.LFE199:
	.size	sd_ppi_group_assign, .-sd_ppi_group_assign
	.section	.text.sd_ppi_group_get,"ax",%progbits
	.align	1
	.syntax unified
	.thumb
	.thumb_func
	.fpu fpv4-sp-d16
	.type	sd_ppi_group_get, %function
sd_ppi_group_get:
.LFB200:
	.loc 2 821 1
	@ Naked Function: prologue and epilogue provided by programmer.
	@ args = 0, pretend = 0, frame = 0
	@ frame_needed = 0, uses_anonymous_args = 0
	.loc 2 821 1
	.syntax unified
@ 821 "../../../nRF5_SDK_17.0.2_d674dde/components/softdevice/s140/headers/nrf_soc.h" 1
	svc #39
bx r14
@ 0 "" 2
	.thumb
	.syntax unified
	nop
	mov	r0, r3
.LFE200:
	.size	sd_ppi_group_get, .-sd_ppi_group_get
	.section	.text.sd_radio_notification_cfg_set,"ax",%progbits
	.align	1
	.syntax unified
	.thumb
	.thumb_func
	.fpu fpv4-sp-d16
	.type	sd_radio_notification_cfg_set, %function
sd_radio_notification_cfg_set:
.LFB201:
	.loc 2 852 1
	@ Naked Function: prologue and epilogue provided by programmer.
	@ args = 0, pretend = 0, frame = 0
	@ frame_needed = 0, uses_anonymous_args = 0
	.loc 2 852 1
	.syntax unified
@ 852 "../../../nRF5_SDK_17.0.2_d674dde/components/softdevice/s140/headers/nrf_soc.h" 1
	svc #69
bx r14
@ 0 "" 2
	.thumb
	.syntax unified
	nop
	mov	r0, r3
.LFE201:
	.size	sd_radio_notification_cfg_set, .-sd_radio_notification_cfg_set
	.section	.text.sd_ecb_block_encrypt,"ax",%progbits
	.align	1
	.syntax unified
	.thumb
	.thumb_func
	.fpu fpv4-sp-d16
	.type	sd_ecb_block_encrypt, %function
sd_ecb_block_encrypt:
.LFB202:
	.loc 2 868 1
	@ Naked Function: prologue and epilogue provided by programmer.
	@ args = 0, pretend = 0, frame = 0
	@ frame_needed = 0, uses_anonymous_args = 0
	.loc 2 868 1
	.syntax unified
@ 868 "../../../nRF5_SDK_17.0.2_d674dde/components/softdevice/s140/headers/nrf_soc.h" 1
	svc #70
bx r14
@ 0 "" 2
	.thumb
	.syntax unified
	nop
	mov	r0, r3
.LFE202:
	.size	sd_ecb_block_encrypt, .-sd_ecb_block_encrypt
	.section	.text.sd_ecb_blocks_encrypt,"ax",%progbits
	.align	1
	.syntax unified
	.thumb
	.thumb_func
	.fpu fpv4-sp-d16
	.type	sd_ecb_blocks_encrypt, %function
sd_ecb_blocks_encrypt:
.LFB203:
	.loc 2 885 1
	@ Naked Function: prologue and epilogue provided by programmer.
	@ args = 0, pretend = 0, frame = 0
	@ frame_needed = 0, uses_anonymous_args = 0
	.loc 2 885 1
	.syntax unified
@ 885 "../../../nRF5_SDK_17.0.2_d674dde/components/softdevice/s140/headers/nrf_soc.h" 1
	svc #71
bx r14
@ 0 "" 2
	.thumb
	.syntax unified
	nop
	mov	r0, r3
.LFE203:
	.size	sd_ecb_blocks_encrypt, .-sd_ecb_blocks_encrypt
	.section	.text.sd_evt_get,"ax",%progbits
	.align	1
	.syntax unified
	.thumb
	.thumb_func
	.fpu fpv4-sp-d16
	.type	sd_evt_get, %function
sd_evt_get:
.LFB204:
	.loc 2 896 1
	@ Naked Function: prologue and epilogue provided by programmer.
	@ args = 0, pretend = 0, frame = 0
	@ frame_needed = 0, uses_anonymous_args = 0
	.loc 2 896 1
	.syntax unified
@ 896 "../../../nRF5_SDK_17.0.2_d674dde/components/softdevice/s140/headers/nrf_soc.h" 1
	svc #75
bx r14
@ 0 "" 2
	.thumb
	.syntax unified
	nop
	mov	r0, r3
.LFE204:
	.size	sd_evt_get, .-sd_evt_get
	.section	.text.sd_temp_get,"ax",%progbits
	.align	1
	.syntax unified
	.thumb
	.thumb_func
	.fpu fpv4-sp-d16
	.type	sd_temp_get, %function
sd_temp_get:
.LFB205:
	.loc 2 907 1
	@ Naked Function: prologue and epilogue provided by programmer.
	@ args = 0, pretend = 0, frame = 0
	@ frame_needed = 0, uses_anonymous_args = 0
	.loc 2 907 1
	.syntax unified
@ 907 "../../../nRF5_SDK_17.0.2_d674dde/components/softdevice/s140/headers/nrf_soc.h" 1
	svc #76
bx r14
@ 0 "" 2
	.thumb
	.syntax unified
	nop
	mov	r0, r3
.LFE205:
	.size	sd_temp_get, .-sd_temp_get
	.section	.text.sd_flash_write,"ax",%progbits
	.align	1
	.syntax unified
	.thumb
	.thumb_func
	.fpu fpv4-sp-d16
	.type	sd_flash_write, %function
sd_flash_write:
.LFB206:
	.loc 2 944 1
	@ Naked Function: prologue and epilogue provided by programmer.
	@ args = 0, pretend = 0, frame = 0
	@ frame_needed = 0, uses_anonymous_args = 0
	.loc 2 944 1
	.syntax unified
@ 944 "../../../nRF5_SDK_17.0.2_d674dde/components/softdevice/s140/headers/nrf_soc.h" 1
	svc #41
bx r14
@ 0 "" 2
	.thumb
	.syntax unified
	nop
	mov	r0, r3
.LFE206:
	.size	sd_flash_write, .-sd_flash_write
	.section	.text.sd_flash_page_erase,"ax",%progbits
	.align	1
	.syntax unified
	.thumb
	.thumb_func
	.fpu fpv4-sp-d16
	.type	sd_flash_page_erase, %function
sd_flash_page_erase:
.LFB207:
	.loc 2 976 1
	@ Naked Function: prologue and epilogue provided by programmer.
	@ args = 0, pretend = 0, frame = 0
	@ frame_needed = 0, uses_anonymous_args = 0
	.loc 2 976 1
	.syntax unified
@ 976 "../../../nRF5_SDK_17.0.2_d674dde/components/softdevice/s140/headers/nrf_soc.h" 1
	svc #40
bx r14
@ 0 "" 2
	.thumb
	.syntax unified
	nop
	mov	r0, r3
.LFE207:
	.size	sd_flash_page_erase, .-sd_flash_page_erase
	.section	.text.sd_radio_session_open,"ax",%progbits
	.align	1
	.syntax unified
	.thumb
	.thumb_func
	.fpu fpv4-sp-d16
	.type	sd_radio_session_open, %function
sd_radio_session_open:
.LFB208:
	.loc 2 1000 2
	@ Naked Function: prologue and epilogue provided by programmer.
	@ args = 0, pretend = 0, frame = 0
	@ frame_needed = 0, uses_anonymous_args = 0
	.loc 2 1000 2
	.syntax unified
@ 1000 "../../../nRF5_SDK_17.0.2_d674dde/components/softdevice/s140/headers/nrf_soc.h" 1
	svc #72
bx r14
@ 0 "" 2
	.thumb
	.syntax unified
	nop
	mov	r0, r3
.LFE208:
	.size	sd_radio_session_open, .-sd_radio_session_open
	.section	.text.sd_radio_session_close,"ax",%progbits
	.align	1
	.syntax unified
	.thumb
	.thumb_func
	.fpu fpv4-sp-d16
	.type	sd_radio_session_close, %function
sd_radio_session_close:
.LFB209:
	.loc 2 1013 2
	@ Naked Function: prologue and epilogue provided by programmer.
	@ args = 0, pretend = 0, frame = 0
	@ frame_needed = 0, uses_anonymous_args = 0
	.loc 2 1013 2
	.syntax unified
@ 1013 "../../../nRF5_SDK_17.0.2_d674dde/components/softdevice/s140/headers/nrf_soc.h" 1
	svc #73
bx r14
@ 0 "" 2
	.thumb
	.syntax unified
	nop
	mov	r0, r3
.LFE209:
	.size	sd_radio_session_close, .-sd_radio_session_close
	.section	.text.sd_radio_request,"ax",%progbits
	.align	1
	.syntax unified
	.thumb
	.thumb_func
	.fpu fpv4-sp-d16
	.type	sd_radio_request, %function
sd_radio_request:
.LFB210:
	.loc 2 1050 2
	@ Naked Function: prologue and epilogue provided by programmer.
	@ args = 0, pretend = 0, frame = 0
	@ frame_needed = 0, uses_anonymous_args = 0
	.loc 2 1050 2
	.syntax unified
@ 1050 "../../../nRF5_SDK_17.0.2_d674dde/components/softdevice/s140/headers/nrf_soc.h" 1
	svc #74
bx r14
@ 0 "" 2
	.thumb
	.syntax unified
	nop
	mov	r0, r3
.LFE210:
	.size	sd_radio_request, .-sd_radio_request
	.section	.text.sd_protected_register_write,"ax",%progbits
	.align	1
	.syntax unified
	.thumb
	.thumb_func
	.fpu fpv4-sp-d16
	.type	sd_protected_register_write, %function
sd_protected_register_write:
.LFB211:
	.loc 2 1071 1
	@ Naked Function: prologue and epilogue provided by programmer.
	@ args = 0, pretend = 0, frame = 0
	@ frame_needed = 0, uses_anonymous_args = 0
	.loc 2 1071 1
	.syntax unified
@ 1071 "../../../nRF5_SDK_17.0.2_d674dde/components/softdevice/s140/headers/nrf_soc.h" 1
	svc #43
bx r14
@ 0 "" 2
	.thumb
	.syntax unified
	nop
	mov	r0, r3
.LFE211:
	.size	sd_protected_register_write, .-sd_protected_register_write
	.section	.text.log_timestamp_get,"ax",%progbits
	.align	1
	.syntax unified
	.thumb
	.thumb_func
	.fpu fpv4-sp-d16
	.type	log_timestamp_get, %function
log_timestamp_get:
.LFB286:
	.file 3 "../../mesh/core/include/log.h"
	.loc 3 199 1
	@ args = 0, pretend = 0, frame = 0
	@ frame_needed = 0, uses_anonymous_args = 0
	@ link register save eliminated.
	.loc 3 209 20
	ldr	r3, .L52
	ldr	r3, [r3, #1284]
	.loc 3 211 1
	mov	r0, r3
	bx	lr
.L53:
	.align	2
.L52:
	.word	1073811456
.LFE286:
	.size	log_timestamp_get, .-log_timestamp_get
	.global	SWITCH2SPI
	.section	.bss.SWITCH2SPI,"aw",%nobits
	.type	SWITCH2SPI, %object
	.size	SWITCH2SPI, 1
SWITCH2SPI:
	.space	1
	.section	.rodata.spis,"a"
	.align	2
	.type	spis, %object
	.size	spis, 8
spis:
	.word	1073758208
	.byte	1
	.space	3
	.section	.rodata.m_rx_length,"a"
	.align	2
	.type	m_rx_length, %object
	.size	m_rx_length, 4
m_rx_length:
	.word	100
	.section	.rodata.m_tx_max__length,"a"
	.align	2
	.type	m_tx_max__length, %object
	.size	m_tx_max__length, 4
m_tx_max__length:
	.word	100
	.section	.bss.m_tx_length,"aw",%nobits
	.align	2
	.type	m_tx_length, %object
	.size	m_tx_length, 4
m_tx_length:
	.space	4
	.section	.bss.m_tx_buf,"aw",%nobits
	.align	2
	.type	m_tx_buf, %object
	.size	m_tx_buf, 4
m_tx_buf:
	.space	4
	.section	.bss.m_rx_buf,"aw",%nobits
	.align	2
	.type	m_rx_buf, %object
	.size	m_rx_buf, 4
m_rx_buf:
	.space	4
	.section	.bss.spis_xfer_done,"aw",%nobits
	.type	spis_xfer_done, %object
	.size	spis_xfer_done, 1
spis_xfer_done:
	.space	1
	.section .rodata
	.align	2
.LC1:
	.ascii	"/home/gaosheng/mesh/my_mesh/nrf5_SDK_for_Mesh_v5.0."
	.ascii	"0_src/examples/beaconing/src/spis.c\000"
	.align	2
.LC2:
	.ascii	"Transfer completed. Received: %s, first:%d \012\000"
	.section	.text.spis_event_handler,"ax",%progbits
	.align	1
	.global	spis_event_handler
	.syntax unified
	.thumb
	.thumb_func
	.fpu fpv4-sp-d16
	.type	spis_event_handler, %function
spis_event_handler:
.LFB287:
	.file 4 "/home/gaosheng/mesh/my_mesh/nrf5_SDK_for_Mesh_v5.0.0_src/examples/beaconing/src/spis.c"
	.loc 4 36 1
	@ args = 0, pretend = 0, frame = 24
	@ frame_needed = 0, uses_anonymous_args = 0
	push	{r4, lr}
.LCFI0:
	sub	sp, sp, #40
.LCFI1:
	add	r3, sp, #20
	stm	r3, {r0, r1, r2}
	.loc 4 37 14
	ldrb	r3, [sp, #20]	@ zero_extendqisi2
	.loc 4 37 8
	cmp	r3, #1
	bne	.L57
.LBB2:
	.loc 4 39 24
	ldr	r3, .L58
	movs	r2, #1
	strb	r2, [r3]
	.loc 4 40 9
	ldr	r3, .L58+4
	ldr	r3, [r3]
	and	r3, r3, #16384
	cmp	r3, #0
	beq	.L56
	.loc 4 40 9 is_stmt 0 discriminator 1
	ldr	r3, .L58+8
	ldr	r3, [r3]
	cmp	r3, #3
	ble	.L56
	.loc 4 40 9 discriminator 2
	ldr	r4, .L58+12
	bl	log_timestamp_get
	mov	r1, r0
	ldr	r3, .L58+16
	ldr	r3, [r3]
	ldr	r2, .L58+16
	ldr	r2, [r2]
	ldrb	r2, [r2]	@ zero_extendqisi2
	str	r2, [sp, #8]
	str	r3, [sp, #4]
	ldr	r3, .L58+20
	str	r3, [sp]
	mov	r3, r1
	movs	r2, #40
	mov	r1, r4
	movs	r0, #4
	bl	log_printf
.L56:
	.loc 4 42 17 is_stmt 1
	ldr	r3, .L58+16
	ldr	r3, [r3]
	ldrb	r3, [r3, #2]
	strb	r3, [sp, #39]
	.loc 4 43 17
	ldr	r3, .L58+16
	ldr	r3, [r3]
	ldrb	r3, [r3, #1]
	strb	r3, [sp, #38]
	.loc 4 44 44
	ldrb	r2, [sp, #39]	@ zero_extendqisi2
	.loc 4 44 51
	ldrb	r3, [sp, #38]	@ zero_extendqisi2
	lsls	r3, r3, #4
	.loc 4 44 44
	add	r3, r3, r2
	.loc 4 44 18
	str	r3, [sp, #32]
	.loc 4 45 9
	ldr	r3, .L58+16
	ldr	r3, [r3]
	ldr	r1, [sp, #32]
	mov	r0, r3
	bl	spis_setfrom_master
	.loc 4 46 21
	ldr	r3, .L58+16
	ldr	r3, [r3]
	ldrb	r3, [r3]	@ zero_extendqisi2
	.loc 4 46 12
	cmp	r3, #0
	beq	.L57
	.loc 4 48 24
	ldr	r3, .L58+24
	movs	r2, #0
	strb	r2, [r3]
.L57:
.LBE2:
	.loc 4 51 1
	nop
	add	sp, sp, #40
.LCFI2:
	@ sp needed
	pop	{r4, pc}
.L59:
	.align	2
.L58:
	.word	spis_xfer_done
	.word	g_log_dbg_msk
	.word	g_log_dbg_lvl
	.word	.LC1+80
	.word	m_rx_buf
	.word	.LC2
	.word	SWITCH2SPI
.LFE287:
	.size	spis_event_handler, .-spis_event_handler
	.section .rodata
	.align	2
.LC3:
	.ascii	"spis_start\012\000"
	.align	2
.LC4:
	.ascii	"tx_data.tx_data_buf: %s, addr: %x\012\000"
	.align	2
.LC0:
	.word	255
	.word	255
	.word	255
	.word	255
	.byte	0
	.byte	0
	.byte	0
	.byte	0
	.byte	-1
	.byte	-1
	.byte	6
	.space	1
	.section	.text.spis_start,"ax",%progbits
	.align	1
	.global	spis_start
	.syntax unified
	.thumb
	.thumb_func
	.fpu fpv4-sp-d16
	.type	spis_start, %function
spis_start:
.LFB288:
	.loc 4 54 1
	@ args = 0, pretend = 0, frame = 48
	@ frame_needed = 0, uses_anonymous_args = 0
	push	{r4, r5, lr}
.LCFI3:
	sub	sp, sp, #68
.LCFI4:
	.loc 4 59 5
	ldr	r3, .L74
	ldr	r3, [r3]
	and	r3, r3, #16384
	cmp	r3, #0
	beq	.L61
	.loc 4 59 5 is_stmt 0 discriminator 1
	ldr	r3, .L74+4
	ldr	r3, [r3]
	cmp	r3, #3
	ble	.L61
	.loc 4 59 5 discriminator 2
	ldr	r4, .L74+8
	bl	log_timestamp_get
	mov	r3, r0
	ldr	r2, .L74+12
	str	r2, [sp]
	movs	r2, #59
	mov	r1, r4
	movs	r0, #4
	bl	log_printf
.L61:
	.loc 4 66 25 is_stmt 1
	add	r3, sp, #44
	mov	r0, r3
	bl	spis_getfrom_slave
	.loc 4 67 29
	movs	r3, #100
	mov	r0, r3
	bl	malloc
	mov	r3, r0
	mov	r2, r3
	.loc 4 67 15
	ldr	r3, .L74+16
	str	r2, [r3]
	.loc 4 68 19
	ldr	r3, .L74+16
	ldr	r3, [r3]
	.loc 4 68 9
	cmp	r3, #0
	beq	.L73
	.loc 4 72 6
	ldr	r3, .L74
	ldr	r3, [r3]
	and	r3, r3, #16384
	cmp	r3, #0
	beq	.L64
	.loc 4 72 6 is_stmt 0 discriminator 1
	ldr	r3, .L74+4
	ldr	r3, [r3]
	cmp	r3, #3
	ble	.L64
	.loc 4 72 6 discriminator 2
	ldr	r4, .L74+8
	bl	log_timestamp_get
	mov	r1, r0
	ldr	r3, [sp, #44]
	ldr	r2, [sp, #44]
	str	r2, [sp, #8]
	str	r3, [sp, #4]
	ldr	r3, .L74+20
	str	r3, [sp]
	mov	r3, r1
	movs	r2, #72
	mov	r1, r4
	movs	r0, #4
	bl	log_printf
.L64:
	.loc 4 75 27 is_stmt 1
	ldr	r3, [sp, #48]
	.loc 4 75 18
	ldr	r2, .L74+24
	str	r3, [r2]
.LBB3:
	.loc 4 76 20
	movs	r3, #0
	str	r3, [sp, #60]
	.loc 4 76 6
	b	.L65
.L66:
	.loc 4 78 31 discriminator 3
	ldr	r2, [sp, #44]
	.loc 4 78 43 discriminator 3
	ldr	r3, [sp, #60]
	add	r2, r2, r3
	.loc 4 78 18 discriminator 3
	ldr	r3, .L74+16
	ldr	r1, [r3]
	ldr	r3, [sp, #60]
	add	r3, r3, r1
	.loc 4 78 43 discriminator 3
	ldrb	r2, [r2]	@ zero_extendqisi2
	.loc 4 78 22 discriminator 3
	strb	r2, [r3]
	.loc 4 76 45 discriminator 3
	ldr	r3, [sp, #60]
	adds	r3, r3, #1
	str	r3, [sp, #60]
.L65:
	.loc 4 76 29 discriminator 1
	ldr	r3, .L74+24
	ldr	r3, [r3]
	.loc 4 76 6 discriminator 1
	ldr	r2, [sp, #60]
	cmp	r2, r3
	bcc	.L66
.LBE3:
	.loc 4 82 27
	ldr	r3, .L74+28
	add	r4, sp, #20
	mov	r5, r3
	ldmia	r5!, {r0, r1, r2, r3}
	stmia	r4!, {r0, r1, r2, r3}
	ldm	r5, {r0, r1}
	stm	r4, {r0, r1}
	.loc 4 83 39
	movs	r3, #31
	str	r3, [sp, #32]
	.loc 4 84 39
	movs	r3, #30
	str	r3, [sp, #20]
	.loc 4 85 39
	movs	r3, #29
	str	r3, [sp, #24]
	.loc 4 86 39
	movs	r3, #26
	str	r3, [sp, #28]
.LBB4:
	.loc 4 89 5
	add	r3, sp, #20
	ldr	r2, .L74+32
	mov	r1, r3
	ldr	r0, .L74+36
	bl	nrf_drv_spis_init
	str	r0, [sp, #56]
	ldr	r3, [sp, #56]
	cmp	r3, #0
	beq	.L68
	.loc 4 89 5 is_stmt 0 discriminator 1
	ldr	r0, [sp, #56]
	bl	app_error_handler_bare
.LBE4:
	.loc 4 91 11 is_stmt 1 discriminator 1
	b	.L68
.L72:
	.loc 4 93 32
	movs	r3, #100
	mov	r0, r3
	bl	malloc
	mov	r3, r0
	mov	r2, r3
	.loc 4 93 18
	ldr	r3, .L74+40
	str	r2, [r3]
	.loc 4 94 9
	ldr	r3, .L74+40
	ldr	r3, [r3]
	movs	r2, #100
	movs	r1, #0
	mov	r0, r3
	bl	memset
	.loc 4 96 24
	ldr	r3, .L74+44
	movs	r2, #0
	strb	r2, [r3]
.LBB5:
	.loc 4 97 9
	ldr	r3, .L74+16
	ldr	r1, [r3]
	ldr	r3, .L74+24
	ldr	r2, [r3]
	ldr	r3, .L74+40
	ldr	r3, [r3]
	movs	r0, #100
	str	r0, [sp]
	ldr	r0, .L74+36
	bl	nrfx_spis_buffers_set
	str	r0, [sp, #52]
	ldr	r3, [sp, #52]
	cmp	r3, #0
	beq	.L70
	.loc 4 97 9 is_stmt 0 discriminator 1
	ldr	r0, [sp, #52]
	bl	app_error_handler_bare
.LBE5:
	.loc 4 98 15 is_stmt 1 discriminator 1
	b	.L70
.L71:
	.loc 4 101 19
	bl	sd_app_evt_wait
	.loc 4 102 13
	movs	r0, #0
	bl	bsp_board_led_invert
.L70:
	.loc 4 98 16
	ldr	r3, .L74+44
	ldrb	r3, [r3]
	uxtb	r3, r3
	eor	r3, r3, #1
	uxtb	r3, r3
	.loc 4 98 15
	cmp	r3, #0
	bne	.L71
.L68:
	.loc 4 91 12
	ldr	r3, .L74+48
	ldrsb	r3, [r3]
	.loc 4 91 11
	cmp	r3, #0
	bne	.L72
	b	.L60
.L73:
	.loc 4 70 10
	nop
.L60:
	.loc 4 106 1
	add	sp, sp, #68
.LCFI5:
	@ sp needed
	pop	{r4, r5, pc}
.L75:
	.align	2
.L74:
	.word	g_log_dbg_msk
	.word	g_log_dbg_lvl
	.word	.LC1+80
	.word	.LC3
	.word	m_tx_buf
	.word	.LC4
	.word	m_tx_length
	.word	.LC0
	.word	spis_event_handler
	.word	spis
	.word	m_rx_buf
	.word	spis_xfer_done
	.word	SWITCH2SPI
.LFE288:
	.size	spis_start, .-spis_start
	.section	.debug_frame,"",%progbits
.Lframe0:
	.4byte	.LECIE0-.LSCIE0
.LSCIE0:
	.4byte	0xffffffff
	.byte	0x3
	.ascii	"\000"
	.uleb128 0x1
	.sleb128 -4
	.uleb128 0xe
	.byte	0xc
	.uleb128 0xd
	.uleb128 0
	.align	2
.LECIE0:
.LSFDE0:
	.4byte	.LEFDE0-.LASFDE0
.LASFDE0:
	.4byte	.Lframe0
	.4byte	.LFB138
	.4byte	.LFE138-.LFB138
	.align	2
.LEFDE0:
.LSFDE2:
	.4byte	.LEFDE2-.LASFDE2
.LASFDE2:
	.4byte	.Lframe0
	.4byte	.LFB164
	.4byte	.LFE164-.LFB164
	.align	2
.LEFDE2:
.LSFDE4:
	.4byte	.LEFDE4-.LASFDE4
.LASFDE4:
	.4byte	.Lframe0
	.4byte	.LFB165
	.4byte	.LFE165-.LFB165
	.align	2
.LEFDE4:
.LSFDE6:
	.4byte	.LEFDE6-.LASFDE6
.LASFDE6:
	.4byte	.Lframe0
	.4byte	.LFB166
	.4byte	.LFE166-.LFB166
	.align	2
.LEFDE6:
.LSFDE8:
	.4byte	.LEFDE8-.LASFDE8
.LASFDE8:
	.4byte	.Lframe0
	.4byte	.LFB167
	.4byte	.LFE167-.LFB167
	.align	2
.LEFDE8:
.LSFDE10:
	.4byte	.LEFDE10-.LASFDE10
.LASFDE10:
	.4byte	.Lframe0
	.4byte	.LFB168
	.4byte	.LFE168-.LFB168
	.align	2
.LEFDE10:
.LSFDE12:
	.4byte	.LEFDE12-.LASFDE12
.LASFDE12:
	.4byte	.Lframe0
	.4byte	.LFB169
	.4byte	.LFE169-.LFB169
	.align	2
.LEFDE12:
.LSFDE14:
	.4byte	.LEFDE14-.LASFDE14
.LASFDE14:
	.4byte	.Lframe0
	.4byte	.LFB170
	.4byte	.LFE170-.LFB170
	.align	2
.LEFDE14:
.LSFDE16:
	.4byte	.LEFDE16-.LASFDE16
.LASFDE16:
	.4byte	.Lframe0
	.4byte	.LFB171
	.4byte	.LFE171-.LFB171
	.align	2
.LEFDE16:
.LSFDE18:
	.4byte	.LEFDE18-.LASFDE18
.LASFDE18:
	.4byte	.Lframe0
	.4byte	.LFB172
	.4byte	.LFE172-.LFB172
	.align	2
.LEFDE18:
.LSFDE20:
	.4byte	.LEFDE20-.LASFDE20
.LASFDE20:
	.4byte	.Lframe0
	.4byte	.LFB173
	.4byte	.LFE173-.LFB173
	.align	2
.LEFDE20:
.LSFDE22:
	.4byte	.LEFDE22-.LASFDE22
.LASFDE22:
	.4byte	.Lframe0
	.4byte	.LFB174
	.4byte	.LFE174-.LFB174
	.align	2
.LEFDE22:
.LSFDE24:
	.4byte	.LEFDE24-.LASFDE24
.LASFDE24:
	.4byte	.Lframe0
	.4byte	.LFB175
	.4byte	.LFE175-.LFB175
	.align	2
.LEFDE24:
.LSFDE26:
	.4byte	.LEFDE26-.LASFDE26
.LASFDE26:
	.4byte	.Lframe0
	.4byte	.LFB176
	.4byte	.LFE176-.LFB176
	.align	2
.LEFDE26:
.LSFDE28:
	.4byte	.LEFDE28-.LASFDE28
.LASFDE28:
	.4byte	.Lframe0
	.4byte	.LFB177
	.4byte	.LFE177-.LFB177
	.align	2
.LEFDE28:
.LSFDE30:
	.4byte	.LEFDE30-.LASFDE30
.LASFDE30:
	.4byte	.Lframe0
	.4byte	.LFB178
	.4byte	.LFE178-.LFB178
	.align	2
.LEFDE30:
.LSFDE32:
	.4byte	.LEFDE32-.LASFDE32
.LASFDE32:
	.4byte	.Lframe0
	.4byte	.LFB179
	.4byte	.LFE179-.LFB179
	.align	2
.LEFDE32:
.LSFDE34:
	.4byte	.LEFDE34-.LASFDE34
.LASFDE34:
	.4byte	.Lframe0
	.4byte	.LFB180
	.4byte	.LFE180-.LFB180
	.align	2
.LEFDE34:
.LSFDE36:
	.4byte	.LEFDE36-.LASFDE36
.LASFDE36:
	.4byte	.Lframe0
	.4byte	.LFB181
	.4byte	.LFE181-.LFB181
	.align	2
.LEFDE36:
.LSFDE38:
	.4byte	.LEFDE38-.LASFDE38
.LASFDE38:
	.4byte	.Lframe0
	.4byte	.LFB182
	.4byte	.LFE182-.LFB182
	.align	2
.LEFDE38:
.LSFDE40:
	.4byte	.LEFDE40-.LASFDE40
.LASFDE40:
	.4byte	.Lframe0
	.4byte	.LFB183
	.4byte	.LFE183-.LFB183
	.align	2
.LEFDE40:
.LSFDE42:
	.4byte	.LEFDE42-.LASFDE42
.LASFDE42:
	.4byte	.Lframe0
	.4byte	.LFB184
	.4byte	.LFE184-.LFB184
	.align	2
.LEFDE42:
.LSFDE44:
	.4byte	.LEFDE44-.LASFDE44
.LASFDE44:
	.4byte	.Lframe0
	.4byte	.LFB185
	.4byte	.LFE185-.LFB185
	.align	2
.LEFDE44:
.LSFDE46:
	.4byte	.LEFDE46-.LASFDE46
.LASFDE46:
	.4byte	.Lframe0
	.4byte	.LFB186
	.4byte	.LFE186-.LFB186
	.align	2
.LEFDE46:
.LSFDE48:
	.4byte	.LEFDE48-.LASFDE48
.LASFDE48:
	.4byte	.Lframe0
	.4byte	.LFB187
	.4byte	.LFE187-.LFB187
	.align	2
.LEFDE48:
.LSFDE50:
	.4byte	.LEFDE50-.LASFDE50
.LASFDE50:
	.4byte	.Lframe0
	.4byte	.LFB188
	.4byte	.LFE188-.LFB188
	.align	2
.LEFDE50:
.LSFDE52:
	.4byte	.LEFDE52-.LASFDE52
.LASFDE52:
	.4byte	.Lframe0
	.4byte	.LFB189
	.4byte	.LFE189-.LFB189
	.align	2
.LEFDE52:
.LSFDE54:
	.4byte	.LEFDE54-.LASFDE54
.LASFDE54:
	.4byte	.Lframe0
	.4byte	.LFB190
	.4byte	.LFE190-.LFB190
	.align	2
.LEFDE54:
.LSFDE56:
	.4byte	.LEFDE56-.LASFDE56
.LASFDE56:
	.4byte	.Lframe0
	.4byte	.LFB191
	.4byte	.LFE191-.LFB191
	.align	2
.LEFDE56:
.LSFDE58:
	.4byte	.LEFDE58-.LASFDE58
.LASFDE58:
	.4byte	.Lframe0
	.4byte	.LFB192
	.4byte	.LFE192-.LFB192
	.align	2
.LEFDE58:
.LSFDE60:
	.4byte	.LEFDE60-.LASFDE60
.LASFDE60:
	.4byte	.Lframe0
	.4byte	.LFB193
	.4byte	.LFE193-.LFB193
	.align	2
.LEFDE60:
.LSFDE62:
	.4byte	.LEFDE62-.LASFDE62
.LASFDE62:
	.4byte	.Lframe0
	.4byte	.LFB194
	.4byte	.LFE194-.LFB194
	.align	2
.LEFDE62:
.LSFDE64:
	.4byte	.LEFDE64-.LASFDE64
.LASFDE64:
	.4byte	.Lframe0
	.4byte	.LFB195
	.4byte	.LFE195-.LFB195
	.align	2
.LEFDE64:
.LSFDE66:
	.4byte	.LEFDE66-.LASFDE66
.LASFDE66:
	.4byte	.Lframe0
	.4byte	.LFB196
	.4byte	.LFE196-.LFB196
	.align	2
.LEFDE66:
.LSFDE68:
	.4byte	.LEFDE68-.LASFDE68
.LASFDE68:
	.4byte	.Lframe0
	.4byte	.LFB197
	.4byte	.LFE197-.LFB197
	.align	2
.LEFDE68:
.LSFDE70:
	.4byte	.LEFDE70-.LASFDE70
.LASFDE70:
	.4byte	.Lframe0
	.4byte	.LFB198
	.4byte	.LFE198-.LFB198
	.align	2
.LEFDE70:
.LSFDE72:
	.4byte	.LEFDE72-.LASFDE72
.LASFDE72:
	.4byte	.Lframe0
	.4byte	.LFB199
	.4byte	.LFE199-.LFB199
	.align	2
.LEFDE72:
.LSFDE74:
	.4byte	.LEFDE74-.LASFDE74
.LASFDE74:
	.4byte	.Lframe0
	.4byte	.LFB200
	.4byte	.LFE200-.LFB200
	.align	2
.LEFDE74:
.LSFDE76:
	.4byte	.LEFDE76-.LASFDE76
.LASFDE76:
	.4byte	.Lframe0
	.4byte	.LFB201
	.4byte	.LFE201-.LFB201
	.align	2
.LEFDE76:
.LSFDE78:
	.4byte	.LEFDE78-.LASFDE78
.LASFDE78:
	.4byte	.Lframe0
	.4byte	.LFB202
	.4byte	.LFE202-.LFB202
	.align	2
.LEFDE78:
.LSFDE80:
	.4byte	.LEFDE80-.LASFDE80
.LASFDE80:
	.4byte	.Lframe0
	.4byte	.LFB203
	.4byte	.LFE203-.LFB203
	.align	2
.LEFDE80:
.LSFDE82:
	.4byte	.LEFDE82-.LASFDE82
.LASFDE82:
	.4byte	.Lframe0
	.4byte	.LFB204
	.4byte	.LFE204-.LFB204
	.align	2
.LEFDE82:
.LSFDE84:
	.4byte	.LEFDE84-.LASFDE84
.LASFDE84:
	.4byte	.Lframe0
	.4byte	.LFB205
	.4byte	.LFE205-.LFB205
	.align	2
.LEFDE84:
.LSFDE86:
	.4byte	.LEFDE86-.LASFDE86
.LASFDE86:
	.4byte	.Lframe0
	.4byte	.LFB206
	.4byte	.LFE206-.LFB206
	.align	2
.LEFDE86:
.LSFDE88:
	.4byte	.LEFDE88-.LASFDE88
.LASFDE88:
	.4byte	.Lframe0
	.4byte	.LFB207
	.4byte	.LFE207-.LFB207
	.align	2
.LEFDE88:
.LSFDE90:
	.4byte	.LEFDE90-.LASFDE90
.LASFDE90:
	.4byte	.Lframe0
	.4byte	.LFB208
	.4byte	.LFE208-.LFB208
	.align	2
.LEFDE90:
.LSFDE92:
	.4byte	.LEFDE92-.LASFDE92
.LASFDE92:
	.4byte	.Lframe0
	.4byte	.LFB209
	.4byte	.LFE209-.LFB209
	.align	2
.LEFDE92:
.LSFDE94:
	.4byte	.LEFDE94-.LASFDE94
.LASFDE94:
	.4byte	.Lframe0
	.4byte	.LFB210
	.4byte	.LFE210-.LFB210
	.align	2
.LEFDE94:
.LSFDE96:
	.4byte	.LEFDE96-.LASFDE96
.LASFDE96:
	.4byte	.Lframe0
	.4byte	.LFB211
	.4byte	.LFE211-.LFB211
	.align	2
.LEFDE96:
.LSFDE98:
	.4byte	.LEFDE98-.LASFDE98
.LASFDE98:
	.4byte	.Lframe0
	.4byte	.LFB286
	.4byte	.LFE286-.LFB286
	.align	2
.LEFDE98:
.LSFDE100:
	.4byte	.LEFDE100-.LASFDE100
.LASFDE100:
	.4byte	.Lframe0
	.4byte	.LFB287
	.4byte	.LFE287-.LFB287
	.byte	0x4
	.4byte	.LCFI0-.LFB287
	.byte	0xe
	.uleb128 0x8
	.byte	0x84
	.uleb128 0x2
	.byte	0x8e
	.uleb128 0x1
	.byte	0x4
	.4byte	.LCFI1-.LCFI0
	.byte	0xe
	.uleb128 0x30
	.byte	0x4
	.4byte	.LCFI2-.LCFI1
	.byte	0xe
	.uleb128 0x8
	.align	2
.LEFDE100:
.LSFDE102:
	.4byte	.LEFDE102-.LASFDE102
.LASFDE102:
	.4byte	.Lframe0
	.4byte	.LFB288
	.4byte	.LFE288-.LFB288
	.byte	0x4
	.4byte	.LCFI3-.LFB288
	.byte	0xe
	.uleb128 0xc
	.byte	0x84
	.uleb128 0x3
	.byte	0x85
	.uleb128 0x2
	.byte	0x8e
	.uleb128 0x1
	.byte	0x4
	.4byte	.LCFI4-.LCFI3
	.byte	0xe
	.uleb128 0x50
	.byte	0x4
	.4byte	.LCFI5-.LCFI4
	.byte	0xe
	.uleb128 0xc
	.align	2
.LEFDE102:
	.text
.Letext0:
	.file 5 "/usr/share/segger_embedded_studio_for_arm_5.62/include/string.h"
	.file 6 "/usr/share/segger_embedded_studio_for_arm_5.62/include/stdint.h"
	.file 7 "../../../nRF5_SDK_17.0.2_d674dde/modules/nrfx/mdk/nrf52840.h"
	.file 8 "../../../nRF5_SDK_17.0.2_d674dde/modules/nrfx/hal/nrf_spis.h"
	.file 9 "../../../nRF5_SDK_17.0.2_d674dde/modules/nrfx/hal/nrf_gpio.h"
	.file 10 "../../../nRF5_SDK_17.0.2_d674dde/modules/nrfx/drivers/include/nrfx_spis.h"
	.file 11 "../../../nRF5_SDK_17.0.2_d674dde/integration/nrfx/legacy/nrf_drv_spis.h"
	.file 12 "include/spis.h"
	.file 13 "include/spis_data.h"